(dp0
S'corner'
p1
ccopy_reg
_reconstructor
p2
(cgeometry_msgs.msg._PoseWithCovarianceStamped
PoseWithCovarianceStamped
p3
c__builtin__
object
p4
Ntp5
Rp6
(lp7
g2
(cstd_msgs.msg._Header
Header
p8
g4
Ntp9
Rp10
(lp11
I211
ag2
(cgenpy.rostime
Time
p12
g4
Ntp13
Rp14
(lp15
I568
aI460000000
abaS'map'
p16
abag2
(cgeometry_msgs.msg._PoseWithCovariance
PoseWithCovariance
p17
g4
Ntp18
Rp19
(lp20
g2
(cgeometry_msgs.msg._Pose
Pose
p21
g4
Ntp22
Rp23
(lp24
g2
(cgeometry_msgs.msg._Point
Point
p25
g4
Ntp26
Rp27
(lp28
F3.0930203128494043
aF-7.757313843321583
aF0.0
abag2
(cgeometry_msgs.msg._Quaternion
Quaternion
p29
g4
Ntp30
Rp31
(lp32
F0.0
aF0.0
aF-0.9429266296661598
aF0.33300055715631566
ababa(F0.23976218003381256
F-0.009920017052319707
F0.0
F0.0
F0.0
F0.0
F-0.009920017052319707
F0.23980327696454395
F0.0
F0.0
F0.0
F0.0
F0.0
F0.0
F0.0
F0.0
F0.0
F0.0
F0.0
F0.0
F0.0
F0.0
F0.0
F0.0
F0.0
F0.0
F0.0
F0.0
F0.0
F0.0
F0.0
F0.0
F0.0
F0.0
F0.0
F0.07265259683863312
tp33
ababsS'center'
p34
g2
(g3
g4
Ntp35
Rp36
(lp37
g2
(g8
g4
Ntp38
Rp39
(lp40
I252
ag2
(g12
g4
Ntp41
Rp42
(lp43
I868
aI845000000
abaS'map'
p44
abag2
(g17
g4
Ntp45
Rp46
(lp47
g2
(g21
g4
Ntp48
Rp49
(lp50
g2
(g25
g4
Ntp51
Rp52
(lp53
F3.8063847873137986
aF0.0074354541536352185
aF0.0
abag2
(g29
g4
Ntp54
Rp55
(lp56
F0.0
aF0.0
aF0.8463234434741413
aF0.5326693430507071
ababa(F0.0015606244067054575
F-0.0008460765762804238
F0.0
F0.0
F0.0
F0.0
F-0.0008460765762804238
F0.005100298781443006
F0.0
F0.0
F0.0
F0.0
F0.0
F0.0
F0.0
F0.0
F0.0
F0.0
F0.0
F0.0
F0.0
F0.0
F0.0
F0.0
F0.0
F0.0
F0.0
F0.0
F0.0
F0.0
F0.0
F0.0
F0.0
F0.0
F0.0
F0.0008023575908507923
tp57
ababsS'kitchen'
p58
g2
(g3
g4
Ntp59
Rp60
(lp61
g2
(g8
g4
Ntp62
Rp63
(lp64
I285
ag2
(g12
g4
Ntp65
Rp66
(lp67
I904
aI299000000
abaS'map'
p68
abag2
(g17
g4
Ntp69
Rp70
(lp71
g2
(g21
g4
Ntp72
Rp73
(lp74
g2
(g25
g4
Ntp75
Rp76
(lp77
F-2.6081969112027696
aF3.8123105378815634
aF0.0
abag2
(g29
g4
Ntp78
Rp79
(lp80
F0.0
aF0.0
aF0.9146435763554449
aF0.4042612128707396
ababa(F0.0016107699981828816
F-0.0002515579668767032
F0.0
F0.0
F0.0
F0.0
F-0.0002515579668767032
F0.0027842998789520124
F0.0
F0.0
F0.0
F0.0
F0.0
F0.0
F0.0
F0.0
F0.0
F0.0
F0.0
F0.0
F0.0
F0.0
F0.0
F0.0
F0.0
F0.0
F0.0
F0.0
F0.0
F0.0
F0.0
F0.0
F0.0
F0.0
F0.0
F0.00143369955283614
tp81
ababs.