(lp0
ccopy_reg
_reconstructor
p1
(cpose_executable
PoseExecutable
p2
c__builtin__
object
p3
Ntp4
Rp5
(dp6
S'arPose'
p7
NsS'relativeFrame'
p8
NsS'pose'
p9
NsS'actionType'
p10
I2
sbag1
(g2
g3
Ntp11
Rp12
(dp13
g7
g1
(cgeometry_msgs.msg._Pose
Pose
p14
g3
Ntp15
Rp16
(lp17
g1
(cgeometry_msgs.msg._Point
Point
p18
g3
Ntp19
Rp20
(lp21
F0.7587596693156677
aF-0.22158391405770808
aF0.8309813296353376
abag1
(cgeometry_msgs.msg._Quaternion
Quaternion
p22
g3
Ntp23
Rp24
(lp25
F-0.7139476263360931
aF-0.31450046880518995
aF0.27323772453352513
aF0.5627693913692492
ababsg8
I1
sg9
g1
(g14
g3
Ntp26
Rp27
(lp28
g1
(g18
g3
Ntp29
Rp30
(lp31
F0.5275191955105484
aF-0.27650983715137806
aF0.7960938940788312
abag1
(g22
g3
Ntp32
Rp33
(lp34
F0.003630694460646221
aF0.0006827510756777912
aF0.08062236075107601
aF0.996737872690521
ababsg10
I3
sbag1
(g2
g3
Ntp35
Rp36
(dp37
g7
g1
(g14
g3
Ntp38
Rp39
(lp40
g1
(g18
g3
Ntp41
Rp42
(lp43
F0.7587596693156677
aF-0.22158391405770808
aF0.8309813296353376
abag1
(g22
g3
Ntp44
Rp45
(lp46
F-0.7139476263360931
aF-0.31450046880518995
aF0.27323772453352513
aF0.5627693913692492
ababsg8
I1
sg9
g1
(g14
g3
Ntp47
Rp48
(lp49
g1
(g18
g3
Ntp50
Rp51
(lp52
F0.5793966304552804
aF-0.26802986188835526
aF0.7960461460852484
abag1
(g22
g3
Ntp53
Rp54
(lp55
F-0.00107752734266964
aF-0.000739322363934586
aF0.08323838383631035
aF0.9965288073074391
ababsg10
I3
sbag1
(g2
g3
Ntp56
Rp57
(dp58
g7
g1
(g14
g3
Ntp59
Rp60
(lp61
g1
(g18
g3
Ntp62
Rp63
(lp64
F0.7587596693156677
aF-0.22158391405770808
aF0.8309813296353376
abag1
(g22
g3
Ntp65
Rp66
(lp67
F-0.7139476263360931
aF-0.31450046880518995
aF0.27323772453352513
aF0.5627693913692492
ababsg8
I1
sg9
g1
(g14
g3
Ntp68
Rp69
(lp70
g1
(g18
g3
Ntp71
Rp72
(lp73
F0.5214339640356773
aF-0.2775415060241128
aF0.796164989653768
abag1
(g22
g3
Ntp74
Rp75
(lp76
F-0.00020666698614716432
aF0.0008219676498107967
aF0.07885679099459109
aF0.9968855943246321
ababsg10
I3
sba.