(lp0
ccopy_reg
_reconstructor
p1
(cpose_executable
PoseExecutable
p2
c__builtin__
object
p3
Ntp4
Rp5
(dp6
S'arPose'
p7
NsS'relativeFrame'
p8
NsS'pose'
p9
NsS'actionType'
p10
I1
sbag1
(g2
g3
Ntp11
Rp12
(dp13
g7
g1
(cgeometry_msgs.msg._Pose
Pose
p14
g3
Ntp15
Rp16
(lp17
g1
(cgeometry_msgs.msg._Point
Point
p18
g3
Ntp19
Rp20
(lp21
F0.692109677266539
aF-0.04041182324795532
aF0.8247490115374415
abag1
(cgeometry_msgs.msg._Quaternion
Quaternion
p22
g3
Ntp23
Rp24
(lp25
F0.039529897000156966
aF-0.7023923543962859
aF0.052433532269264886
aF0.7087546066323431
ababsg8
I15
sg9
g1
(g14
g3
Ntp26
Rp27
(lp28
g1
(g18
g3
Ntp29
Rp30
(lp31
F0.6248284719778829
aF0.3462237282469561
aF0.889488529910859
abag1
(g22
g3
Ntp32
Rp33
(lp34
F-0.023135761964694246
aF0.038229562234022144
aF-0.5245940094592748
aF0.8501790178128077
ababsg10
I3
sbag1
(g2
g3
Ntp35
Rp36
(dp37
g7
g1
(g14
g3
Ntp38
Rp39
(lp40
g1
(g18
g3
Ntp41
Rp42
(lp43
F0.6914029856199486
aF-0.03869775570259437
aF0.8253079466579409
abag1
(g22
g3
Ntp44
Rp45
(lp46
F0.04434702992665332
aF-0.6979375665126305
aF0.05846874113699272
aF0.7123888688749759
ababsg8
I15
sg9
g1
(g14
g3
Ntp47
Rp48
(lp49
g1
(g18
g3
Ntp50
Rp51
(lp52
F0.694706307337248
aF0.17887490500493394
aF0.889560099796959
abag1
(g22
g3
Ntp53
Rp54
(lp55
F-0.017569442617011446
aF0.0402100724420583
aF-0.6327306358150653
aF0.7731276784990918
ababsg10
I3
sbag1
(g2
g3
Ntp56
Rp57
(dp58
g7
Nsg8
Nsg9
Nsg10
I2
sbag1
(g2
g3
Ntp59
Rp60
(dp61
g7
g1
(g14
g3
Ntp62
Rp63
(lp64
g1
(g18
g3
Ntp65
Rp66
(lp67
F0.6348710629466966
aF-0.23730294314179665
aF0.715341812735768
abag1
(g22
g3
Ntp68
Rp69
(lp70
F-0.006673985980399802
aF-0.00022991237340847968
aF-0.03452088282081985
aF0.9993816656816881
ababsg8
I9
sg9
g1
(g14
g3
Ntp71
Rp72
(lp73
g1
(g18
g3
Ntp74
Rp75
(lp76
F0.7081315238251199
aF-0.06293282043888127
aF1.089857954888285
abag1
(g22
g3
Ntp77
Rp78
(lp79
F0.1589217077095535
aF-0.0394783299274215
aF-0.7447460781728799
aF0.6469456169810068
ababsg10
I3
sbag1
(g2
g3
Ntp80
Rp81
(dp82
g7
g1
(g14
g3
Ntp83
Rp84
(lp85
g1
(g18
g3
Ntp86
Rp87
(lp88
F0.6341464313267111
aF-0.23936091485107103
aF0.7146851638066629
abag1
(g22
g3
Ntp89
Rp90
(lp91
F-0.0006714200643226082
aF0.009775891041506904
aF-0.044060008496602986
aF0.9989808290456436
ababsg8
I9
sg9
g1
(g14
g3
Ntp92
Rp93
(lp94
g1
(g18
g3
Ntp95
Rp96
(lp97
F0.7171493312840506
aF-0.06020823092126115
aF0.900433137812541
abag1
(g22
g3
Ntp98
Rp99
(lp100
F-0.0006388336960065077
aF0.03836911104126273
aF-0.7584460287279444
aF0.650605121956646
ababsg10
I3
sbag1
(g2
g3
Ntp101
Rp102
(dp103
g7
Nsg8
Nsg9
Nsg10
I1
sbag1
(g2
g3
Ntp104
Rp105
(dp106
g7
Nsg8
S'base_link'
p107
sg9
g1
(g14
g3
Ntp108
Rp109
(lp110
g1
(g18
g3
Ntp111
Rp112
(lp113
F0.5132125830193444
aF0.4910514721811795
aF0.9008713051065247
abag1
(g22
g3
Ntp114
Rp115
(lp116
F-0.01633691785620217
aF0.03409456423067415
aF-0.4075224290577761
aF0.9124122618749323
ababsg10
I3
sba.