(lp0
ccopy_reg
_reconstructor
p1
(cpose_executable
PoseExecutable
p2
c__builtin__
object
p3
Ntp4
Rp5
(dp6
S'arPose'
p7
NsS'relativeFrame'
p8
NsS'pose'
p9
NsS'actionType'
p10
I1
sbag1
(g2
g3
Ntp11
Rp12
(dp13
g7
g1
(cgeometry_msgs.msg._Pose
Pose
p14
g3
Ntp15
Rp16
(lp17
g1
(cgeometry_msgs.msg._Point
Point
p18
g3
Ntp19
Rp20
(lp21
F0.6676077463889252
aF-0.04971446342833748
aF0.8374669083174417
abag1
(cgeometry_msgs.msg._Quaternion
Quaternion
p22
g3
Ntp23
Rp24
(lp25
F-0.3596507946623859
aF-0.38431316731911863
aF0.6399519230752124
aF0.5598358969164079
ababsg8
I1
sg9
g1
(g14
g3
Ntp26
Rp27
(lp28
g1
(g18
g3
Ntp29
Rp30
(lp31
F0.6327680458620962
aF0.3165728539269651
aF0.7934952480174184
abag1
(g22
g3
Ntp32
Rp33
(lp34
F0.07390053834343818
aF-0.014400298143682192
aF-0.5591986715097591
aF0.8256077686332921
ababsg10
I3
sbag1
(g2
g3
Ntp35
Rp36
(dp37
g7
g1
(g14
g3
Ntp38
Rp39
(lp40
g1
(g18
g3
Ntp41
Rp42
(lp43
F0.6674610855413481
aF-0.048938104036593044
aF0.8389652585347525
abag1
(g22
g3
Ntp44
Rp45
(lp46
F-0.37730999823845757
aF-0.36946748168344423
aF0.6563876898484267
aF0.538782094935638
ababsg8
I1
sg9
g1
(g14
g3
Ntp47
Rp48
(lp49
g1
(g18
g3
Ntp50
Rp51
(lp52
F0.698913659902388
aF0.12839194419027136
aF0.7936541435735887
abag1
(g22
g3
Ntp53
Rp54
(lp55
F0.07113359121969523
aF-0.02530846233936169
aF-0.6746957549103385
aF0.7342241702914546
ababsg10
I3
sbag1
(g2
g3
Ntp56
Rp57
(dp58
g7
Nsg8
Nsg9
Nsg10
I2
sbag1
(g2
g3
Ntp59
Rp60
(dp61
g7
g1
(g14
g3
Ntp62
Rp63
(lp64
g1
(g18
g3
Ntp65
Rp66
(lp67
F0.6298018052060209
aF-0.2271628237287429
aF0.7149300680085716
abag1
(g22
g3
Ntp68
Rp69
(lp70
F-0.0066264979594129175
aF0.003737565871451406
aF-0.06806212518346559
aF0.9976520772502109
ababsg8
I9
sg9
g1
(g14
g3
Ntp71
Rp72
(lp73
g1
(g18
g3
Ntp74
Rp75
(lp76
F0.7359500770508154
aF-0.05562335825553755
aF0.8048294644393249
abag1
(g22
g3
Ntp77
Rp78
(lp79
F0.06903618408128068
aF-0.022240663480482502
aF-0.740678137821793
aF0.6679335702959421
ababsg10
I3
sbag1
(g2
g3
Ntp80
Rp81
(dp82
g7
Nsg8
Nsg9
Nsg10
I1
sbag1
(g2
g3
Ntp83
Rp84
(dp85
g7
Nsg8
S'base_link'
p86
sg9
g1
(g14
g3
Ntp87
Rp88
(lp89
g1
(g18
g3
Ntp90
Rp91
(lp92
F0.6208359069348645
aF0.2307629786249767
aF0.9667120908267225
abag1
(g22
g3
Ntp93
Rp94
(lp95
F0.27898837503983265
aF-0.12288352968268659
aF-0.6168954842961075
aF0.7256067021330694
ababsg10
I3
sba.