(lp0
ccopy_reg
_reconstructor
p1
(cpose_executable
PoseExecutable
p2
c__builtin__
object
p3
Ntp4
Rp5
(dp6
S'arPose'
p7
NsS'relativeFrame'
p8
NsS'pose'
p9
NsS'actionType'
p10
I2
sbag1
(g2
g3
Ntp11
Rp12
(dp13
g7
Nsg8
S'base_link'
p14
sg9
g1
(cgeometry_msgs.msg._Pose
Pose
p15
g3
Ntp16
Rp17
(lp18
g1
(cgeometry_msgs.msg._Point
Point
p19
g3
Ntp20
Rp21
(lp22
F0.4071627182300257
aF0.2569687958918676
aF1.3368406697368924
abag1
(cgeometry_msgs.msg._Quaternion
Quaternion
p23
g3
Ntp24
Rp25
(lp26
F0.33211943448165193
aF-0.7529331586032773
aF-0.24907871406257098
aF0.5106350302478438
ababsg10
I3
sbag1
(g2
g3
Ntp27
Rp28
(dp29
g7
g1
(g15
g3
Ntp30
Rp31
(lp32
g1
(g19
g3
Ntp33
Rp34
(lp35
F0.7184536013853076
aF-0.0674654515820703
aF0.8240610427563474
abag1
(g23
g3
Ntp36
Rp37
(lp38
F-0.013000014467201556
aF-0.7064553857914928
aF-0.01064670495046636
aF0.7075580790180714
ababsg8
I15
sg9
g1
(g15
g3
Ntp39
Rp40
(lp41
g1
(g19
g3
Ntp42
Rp43
(lp44
F0.6072714622908804
aF0.1118509300971824
aF0.7941259680474431
abag1
(g23
g3
Ntp45
Rp46
(lp47
F0.2973339967848684
aF-0.21213129844816722
aF-0.6308527037182652
aF0.6845565519268552
ababsg10
I3
sbag1
(g2
g3
Ntp48
Rp49
(dp50
g7
g1
(g15
g3
Ntp51
Rp52
(lp53
g1
(g19
g3
Ntp54
Rp55
(lp56
F0.5976588071787798
aF-0.06243340717971059
aF0.8245248789683021
abag1
(g23
g3
Ntp57
Rp58
(lp59
F0.004428686782884741
aF-0.7030431894827202
aF0.0054998312828919305
aF0.7111120954611888
ababsg8
I15
sg9
g1
(g15
g3
Ntp60
Rp61
(lp62
g1
(g19
g3
Ntp63
Rp64
(lp65
F0.7197310605283523
aF0.08665688380813318
aF0.8113259822377372
abag1
(g23
g3
Ntp66
Rp67
(lp68
F0.3030306774157321
aF-0.2844627454476134
aF-0.550321989871351
aF0.7241540322758726
ababsg10
I3
sbag1
(g2
g3
Ntp69
Rp70
(dp71
g7
Nsg8
g14
sg9
g1
(g15
g3
Ntp72
Rp73
(lp74
g1
(g19
g3
Ntp75
Rp76
(lp77
F0.357992340451992
aF0.10672060845496362
aF0.8194337318010682
abag1
(g23
g3
Ntp78
Rp79
(lp80
F0.3577749807670265
aF-0.38887877992327463
aF-0.6394352660138283
aF0.5584737220678909
ababsg10
I3
sba.