(lp0
ccopy_reg
_reconstructor
p1
(cpose_executable
PoseExecutable
p2
c__builtin__
object
p3
Ntp4
Rp5
(dp6
S'arPose'
p7
NsS'relativeFrame'
p8
NsS'pose'
p9
NsS'actionType'
p10
I2
sbag1
(g2
g3
Ntp11
Rp12
(dp13
g7
Nsg8
S'base_link'
p14
sg9
g1
(cgeometry_msgs.msg._Pose
Pose
p15
g3
Ntp16
Rp17
(lp18
g1
(cgeometry_msgs.msg._Point
Point
p19
g3
Ntp20
Rp21
(lp22
F0.40263812805221205
aF0.23791354582273871
aF1.1861142262529016
abag1
(cgeometry_msgs.msg._Quaternion
Quaternion
p23
g3
Ntp24
Rp25
(lp26
F0.8467295947988823
aF-0.3480799067862951
aF0.15193331688041906
aF-0.3725662880684173
ababsg10
I3
sbag1
(g2
g3
Ntp27
Rp28
(dp29
g7
g1
(g15
g3
Ntp30
Rp31
(lp32
g1
(g19
g3
Ntp33
Rp34
(lp35
F0.7380791259116084
aF-0.01719914302718499
aF0.8226111929749365
abag1
(g23
g3
Ntp36
Rp37
(lp38
F-6.45784939126846e-06
aF-0.7071032852962024
aF0.022573120154538617
aF0.7067498837128325
ababsg8
I15
sg9
g1
(g15
g3
Ntp39
Rp40
(lp41
g1
(g19
g3
Ntp42
Rp43
(lp44
F0.5629447973679588
aF0.14522189769834934
aF0.8505243410786629
abag1
(g23
g3
Ntp45
Rp46
(lp47
F0.8942051488843343
aF-0.43406230710227633
aF-0.10886613256883063
aF0.011628862425034518
ababsg10
I3
sbag1
(g2
g3
Ntp48
Rp49
(dp50
g7
g1
(g15
g3
Ntp51
Rp52
(lp53
g1
(g19
g3
Ntp54
Rp55
(lp56
F0.6315767791267985
aF-0.2251066062487371
aF0.7142483909709523
abag1
(g23
g3
Ntp57
Rp58
(lp59
F-0.028628627735076295
aF0.022121069425895368
aF-0.054733210748174235
aF0.9978453465355527
ababsg8
I9
sg9
g1
(g15
g3
Ntp60
Rp61
(lp62
g1
(g19
g3
Ntp63
Rp64
(lp65
F0.7821447867423745
aF0.14567205287432197
aF0.8795077205060343
abag1
(g23
g3
Ntp66
Rp67
(lp68
F0.9329411445939132
aF-0.33756050883850036
aF-0.09255510160071054
aF0.08430466632502792
ababsg10
I3
sbag1
(g2
g3
Ntp69
Rp70
(dp71
g7
Nsg8
g14
sg9
g1
(g15
g3
Ntp72
Rp73
(lp74
g1
(g19
g3
Ntp75
Rp76
(lp77
F0.47691692140032155
aF0.1221698347226222
aF0.856330468842327
abag1
(g23
g3
Ntp78
Rp79
(lp80
F0.8591054769246974
aF-0.4968476540937247
aF-0.05227610486523647
aF0.11111884178513329
ababsg10
I3
sba.