(lp0
ccopy_reg
_reconstructor
p1
(cpose_executable
PoseExecutable
p2
c__builtin__
object
p3
Ntp4
Rp5
(dp6
S'arPose'
p7
NsS'relativeFrame'
p8
NsS'pose'
p9
NsS'actionType'
p10
I2
sbag1
(g2
g3
Ntp11
Rp12
(dp13
g7
Nsg8
S'base_link'
p14
sg9
g1
(cgeometry_msgs.msg._Pose
Pose
p15
g3
Ntp16
Rp17
(lp18
g1
(cgeometry_msgs.msg._Point
Point
p19
g3
Ntp20
Rp21
(lp22
F0.31820278685107467
aF0.1716715254224201
aF1.311155002611385
abag1
(cgeometry_msgs.msg._Quaternion
Quaternion
p23
g3
Ntp24
Rp25
(lp26
F0.7707843416038868
aF-0.358743957405957
aF0.5033417459810738
aF-0.15440647174163383
ababsg10
I3
sbag1
(g2
g3
Ntp27
Rp28
(dp29
g7
g1
(g15
g3
Ntp30
Rp31
(lp32
g1
(g19
g3
Ntp33
Rp34
(lp35
F0.6337972429016094
aF-0.22678075707470655
aF0.7127642406198256
abag1
(g23
g3
Ntp36
Rp37
(lp38
F0.010464666485196825
aF-0.005013488243847601
aF-0.015308154412322165
aF0.9998154910279552
ababsg8
I9
sg9
g1
(g15
g3
Ntp39
Rp40
(lp41
g1
(g19
g3
Ntp42
Rp43
(lp44
F0.5795569645345754
aF0.10825858159354183
aF0.8206090969047685
abag1
(g23
g3
Ntp45
Rp46
(lp47
F0.8919368489519873
aF-0.4311355946874921
aF-0.13615944318866796
aF-0.005600223711099706
ababsg10
I3
sbag1
(g2
g3
Ntp48
Rp49
(dp50
g7
g1
(g15
g3
Ntp51
Rp52
(lp53
g1
(g19
g3
Ntp54
Rp55
(lp56
F0.7311136236866191
aF-0.02548105397292675
aF0.824602578972093
abag1
(g23
g3
Ntp57
Rp58
(lp59
F-0.015126135177914323
aF-0.7100140730196065
aF0.025924677354564447
aF0.7035475302015848
ababsg8
I15
sg9
g1
(g15
g3
Ntp60
Rp61
(lp62
g1
(g19
g3
Ntp63
Rp64
(lp65
F0.8330936809830662
aF0.0913651320186943
aF0.8563737863485106
abag1
(g23
g3
Ntp66
Rp67
(lp68
F0.9066901678391017
aF-0.37184287530905863
aF-0.1704677744195271
aF0.10289097876027194
ababsg10
I3
sbag1
(g2
g3
Ntp69
Rp70
(dp71
g7
Nsg8
g14
sg9
g1
(g15
g3
Ntp72
Rp73
(lp74
g1
(g19
g3
Ntp75
Rp76
(lp77
F0.34853057075509986
aF0.12294298565798335
aF0.8415093425811829
abag1
(g23
g3
Ntp78
Rp79
(lp80
F0.701324744234024
aF-0.5817141863034175
aF-0.23982027119873298
aF0.33502006820577157
ababsg10
I3
sba.