(dp0
S'bar'
p1
ccopy_reg
_reconstructor
p2
(cgeometry_msgs.msg._Pose
Pose
p3
c__builtin__
object
p4
Ntp5
Rp6
(lp7
g2
(cgeometry_msgs.msg._Point
Point
p8
g4
Ntp9
Rp10
(lp11
F0.0
aF0.0
aF0.0
abag2
(cgeometry_msgs.msg._Quaternion
Quaternion
p12
g4
Ntp13
Rp14
(lp15
F0.0
aF0.0
aF0.0
aF0.0
ababsS'bar_table'
p16
g2
(g3
g4
Ntp17
Rp18
(lp19
g2
(g8
g4
Ntp20
Rp21
(lp22
F-2.9272356033325195
aF3.7805049419403076
aF-1.430511474609375e-06
abag2
(g12
g4
Ntp23
Rp24
(lp25
F5.757308230158742e-08
aF1.4565446626590983e-09
aF-0.9995875358581543
aF-0.028722964227199554
ababs.