(lp0
ccopy_reg
_reconstructor
p1
(cpose_executable
PoseExecutable
p2
c__builtin__
object
p3
Ntp4
Rp5
(dp6
S'arPose'
p7
NsS'relativeFrame'
p8
NsS'pose'
p9
NsS'actionType'
p10
I1
sbag1
(g2
g3
Ntp11
Rp12
(dp13
g7
Nsg8
S'base_link'
p14
sg9
g1
(cgeometry_msgs.msg._Pose
Pose
p15
g3
Ntp16
Rp17
(lp18
g1
(cgeometry_msgs.msg._Point
Point
p19
g3
Ntp20
Rp21
(lp22
F0.5390058379498169
aF0.5539198582656076
aF0.8449865098863154
abag1
(cgeometry_msgs.msg._Quaternion
Quaternion
p23
g3
Ntp24
Rp25
(lp26
F0.9482190137697724
aF-0.31301342730477905
aF-0.012678887761405105
aF0.052369285440320455
ababsg10
I3
sbag1
(g2
g3
Ntp27
Rp28
(dp29
g7
g1
(g15
g3
Ntp30
Rp31
(lp32
g1
(g19
g3
Ntp33
Rp34
(lp35
F0.637344840589404
aF-0.2410792699032066
aF0.7104595650504513
abag1
(g23
g3
Ntp36
Rp37
(lp38
F-0.006397432960628273
aF0.006414256548746742
aF-0.023260136083031135
aF0.9996883995695061
ababsg8
I9
sg9
g1
(g15
g3
Ntp39
Rp40
(lp41
g1
(g19
g3
Ntp42
Rp43
(lp44
F0.6943276665488597
aF0.3541313114159442
aF0.8445358792786136
abag1
(g23
g3
Ntp45
Rp46
(lp47
F0.8821895741502879
aF-0.46773629809785755
aF-0.0207032314147863
aF0.05035560456624395
ababsg10
I3
sbag1
(g2
g3
Ntp48
Rp49
(dp50
g7
g1
(g15
g3
Ntp51
Rp52
(lp53
g1
(g19
g3
Ntp54
Rp55
(lp56
F0.7795867359781687
aF-0.0254837590702997
aF0.8235598366325079
abag1
(g23
g3
Ntp57
Rp58
(lp59
F-0.03470872247986838
aF-0.6860339092947376
aF-0.03620208129370929
aF0.7258389554106331
ababsg8
I15
sg9
g1
(g15
g3
Ntp60
Rp61
(lp62
g1
(g19
g3
Ntp63
Rp64
(lp65
F0.765967021573626
aF0.17027512509415182
aF0.8135485750345435
abag1
(g23
g3
Ntp66
Rp67
(lp68
F0.7965499099887304
aF-0.596767490976271
aF-0.09306076709471343
aF-0.026767447367562855
ababsg10
I3
sbag1
(g2
g3
Ntp69
Rp70
(dp71
g7
g1
(g15
g3
Ntp72
Rp73
(lp74
g1
(g19
g3
Ntp75
Rp76
(lp77
F0.6375569926420857
aF-0.2399836766763912
aF0.7123004403158844
abag1
(g23
g3
Ntp78
Rp79
(lp80
F0.011085850826790889
aF0.014324904725997626
aF-0.05680957024005691
aF0.998220703925328
ababsg8
I9
sg9
g1
(g15
g3
Ntp81
Rp82
(lp83
g1
(g19
g3
Ntp84
Rp85
(lp86
F0.7838871592914873
aF-0.050891217050238524
aF0.8141833320609
abag1
(g23
g3
Ntp87
Rp88
(lp89
F-0.7000239104118248
aF0.7076714703843183
aF0.08709336558686831
aF0.03977889549229085
ababsg10
I3
sbag1
(g2
g3
Ntp90
Rp91
(dp92
g7
Nsg8
g14
sg9
g1
(g15
g3
Ntp93
Rp94
(lp95
g1
(g19
g3
Ntp96
Rp97
(lp98
F0.4542375828440323
aF0.6237590879698325
aF0.8140466758988865
abag1
(g23
g3
Ntp99
Rp100
(lp101
F0.9595718504155143
aF-0.26437953506065526
aF-0.09614979668474286
aF0.008974515515621168
ababsg10
I3
sba.