(lp0
ccopy_reg
_reconstructor
p1
(cpose_executable
PoseExecutable
p2
c__builtin__
object
p3
Ntp4
Rp5
(dp6
S'arPose'
p7
g1
(cgeometry_msgs.msg._Pose
Pose
p8
g3
Ntp9
Rp10
(lp11
g1
(cgeometry_msgs.msg._Point
Point
p12
g3
Ntp13
Rp14
(lp15
F0.5842074245843711
aF0.010540936070196995
aF0.7090734098472434
abag1
(cgeometry_msgs.msg._Quaternion
Quaternion
p16
g3
Ntp17
Rp18
(lp19
F-0.007244705699711418
aF0.004864816190158758
aF0.06312563713023782
aF0.9979674352100182
ababsS'relativeFrame'
p20
I9
sS'pose'
p21
g1
(g8
g3
Ntp22
Rp23
(lp24
g1
(g12
g3
Ntp25
Rp26
(lp27
F0.5108141171896255
aF-0.48755813055578845
aF0.9063714937023639
abag1
(g16
g3
Ntp28
Rp29
(lp30
F0.04305813160260039
aF0.07728821191945505
aF0.40618405574923466
aF0.9094982366427596
ababsS'actionType'
p31
I3
sbag1
(g2
g3
Ntp32
Rp33
(dp34
g7
g1
(g8
g3
Ntp35
Rp36
(lp37
g1
(g12
g3
Ntp38
Rp39
(lp40
F0.6800711298756164
aF-0.15015128426506882
aF0.8241617499398671
abag1
(g16
g3
Ntp41
Rp42
(lp43
F-0.014902762314910618
aF-0.6898641608416245
aF0.0005624759827672123
aF0.7237852104612493
ababsg20
I15
sg21
g1
(g8
g3
Ntp44
Rp45
(lp46
g1
(g12
g3
Ntp47
Rp48
(lp49
F0.6385372467236965
aF-0.3570307950458236
aF0.9098312565023283
abag1
(g16
g3
Ntp50
Rp51
(lp52
F0.03192409586175815
aF0.07916029143734803
aF0.5142063421838314
aF0.8534086582762609
ababsg31
I3
sbag1
(g2
g3
Ntp53
Rp54
(dp55
g7
g1
(g8
g3
Ntp56
Rp57
(lp58
g1
(g12
g3
Ntp59
Rp60
(lp61
F0.583087632913146
aF0.008142214005666427
aF0.7107522156408603
abag1
(g16
g3
Ntp62
Rp63
(lp64
F0.0029666215341334324
aF0.0033373503891028764
aF0.05542944735331105
aF0.998452621617651
ababsg20
I9
sg21
g1
(g8
g3
Ntp65
Rp66
(lp67
g1
(g12
g3
Ntp68
Rp69
(lp70
F0.7092669555459628
aF-0.19160271833269604
aF0.9100069265067352
abag1
(g16
g3
Ntp71
Rp72
(lp73
F0.021200672241906898
aF0.0824653494730034
aF0.6193128113252687
aF0.78051370222513
ababsg31
I3
sbag1
(g2
g3
Ntp74
Rp75
(dp76
g7
g1
(g8
g3
Ntp77
Rp78
(lp79
g1
(g12
g3
Ntp80
Rp81
(lp82
F0.7257845048021904
aF0.020166545804224695
aF0.8239404772053356
abag1
(g16
g3
Ntp83
Rp84
(lp85
F-0.020127938938104967
aF-0.6838998343380943
aF-0.027927001337160907
aF0.7287633122370701
ababsg20
I15
sg21
g1
(g8
g3
Ntp86
Rp87
(lp88
g1
(g12
g3
Ntp89
Rp90
(lp91
F0.6644429636860771
aF-0.1450301052604836
aF1.215995451960243
abag1
(g16
g3
Ntp92
Rp93
(lp94
F-0.29282927112749646
aF0.04715448589246632
aF0.5740988706550428
aF0.7631762307250932
ababsg31
I3
sbag1
(g2
g3
Ntp95
Rp96
(dp97
g7
g1
(g8
g3
Ntp98
Rp99
(lp100
g1
(g12
g3
Ntp101
Rp102
(lp103
F0.7261436446361047
aF0.015818732711268095
aF0.8228677018263618
abag1
(g16
g3
Ntp104
Rp105
(lp106
F-0.028397506504824963
aF-0.6848895947296593
aF-0.030556453384321152
aF0.7274518044598719
ababsg20
I15
sg21
g1
(g8
g3
Ntp107
Rp108
(lp109
g1
(g12
g3
Ntp110
Rp111
(lp112
F0.6685854425878737
aF0.2616025947948775
aF1.2476962722251188
abag1
(g16
g3
Ntp113
Rp114
(lp115
F0.25291105469977837
aF-0.10745732864940406
aF-0.25802324667582277
aF0.9262358906375023
ababsg31
I3
sbag1
(g2
g3
Ntp116
Rp117
(dp118
g7
g1
(g8
g3
Ntp119
Rp120
(lp121
g1
(g12
g3
Ntp122
Rp123
(lp124
F0.5840509091194315
aF0.0049801591318299546
aF0.7097468535156587
abag1
(g16
g3
Ntp125
Rp126
(lp127
F-0.010681786266261272
aF-0.0013479437052586584
aF0.05866994366123542
aF0.9982193747872845
ababsg20
I9
sg21
g1
(g8
g3
Ntp128
Rp129
(lp130
g1
(g12
g3
Ntp131
Rp132
(lp133
F0.6039459670851602
aF0.36460123107772985
aF0.9157050357540365
abag1
(g16
g3
Ntp134
Rp135
(lp136
F0.026583099242587387
aF0.043897658107049264
aF-0.46692356087410963
aF0.8828072964968159
ababsg31
I3
sbag1
(g2
g3
Ntp137
Rp138
(dp139
g7
g1
(g8
g3
Ntp140
Rp141
(lp142
g1
(g12
g3
Ntp143
Rp144
(lp145
F0.7253478918375782
aF0.016409157784327028
aF0.8234558722124559
abag1
(g16
g3
Ntp146
Rp147
(lp148
F-0.02449709803290556
aF-0.6854529648866248
aF-0.031758078279941884
aF0.727011382015486
ababsg20
I15
sg21
g1
(g8
g3
Ntp149
Rp150
(lp151
g1
(g12
g3
Ntp152
Rp153
(lp154
F0.68410935553117
aF0.23087589570556835
aF0.9137595931411076
abag1
(g16
g3
Ntp155
Rp156
(lp157
F0.036306714306153995
aF0.044406459141718056
aF-0.5242647423585517
aF0.8496213090562805
ababsg31
I3
sbag1
(g2
g3
Ntp158
Rp159
(dp160
g7
g1
(g8
g3
Ntp161
Rp162
(lp163
g1
(g12
g3
Ntp164
Rp165
(lp166
F0.5832391103706656
aF0.0069590587073990635
aF0.7109533694964895
abag1
(g16
g3
Ntp167
Rp168
(lp169
F0.0008233347447888572
aF-0.0037423431419653917
aF0.06035574776466983
aF0.9981695751221199
ababsg20
I9
sg21
g1
(g8
g3
Ntp170
Rp171
(lp172
g1
(g12
g3
Ntp173
Rp174
(lp175
F0.7222922635789603
aF0.049395672846279284
aF0.9136282348036474
abag1
(g16
g3
Ntp176
Rp177
(lp178
F0.04138479096606825
aF0.038795354560543456
aF-0.632964035528522
aF0.7721002197051006
ababsg31
I3
sbag1
(g2
g3
Ntp179
Rp180
(dp181
g7
g1
(g8
g3
Ntp182
Rp183
(lp184
g1
(g12
g3
Ntp185
Rp186
(lp187
F0.736931342583245
aF-0.1512074190160652
aF0.8237096424476401
abag1
(g16
g3
Ntp188
Rp189
(lp190
F0.02293549673041398
aF-0.6860611612447725
aF0.026824190805566448
aF0.7266873528614831
ababsg20
I15
sg21
g1
(g8
g3
Ntp191
Rp192
(lp193
g1
(g12
g3
Ntp194
Rp195
(lp196
F0.6523542521477687
aF0.03193608737679762
aF1.2398732955437601
abag1
(g16
g3
Ntp197
Rp198
(lp199
F0.406222448226089
aF-0.02501300529116754
aF-0.5429638470723976
aF0.7345392657277406
ababsg31
I3
sbag1
(g2
g3
Ntp200
Rp201
(dp202
g7
Nsg20
S'base_link'
p203
sg21
g1
(g8
g3
Ntp204
Rp205
(lp206
g1
(g12
g3
Ntp207
Rp208
(lp209
F0.46695686486825544
aF-0.5587879588378704
aF1.0943344194761568
abag1
(g16
g3
Ntp210
Rp211
(lp212
F-0.0003881923978202185
aF-0.1392471258404311
aF0.28721318392679596
aF0.947691233593766
ababsg31
I3
sba.