(lp0
ccopy_reg
_reconstructor
p1
(cpose_executable
PoseExecutable
p2
c__builtin__
object
p3
Ntp4
Rp5
(dp6
S'arPose'
p7
g1
(cgeometry_msgs.msg._Pose
Pose
p8
g3
Ntp9
Rp10
(lp11
g1
(cgeometry_msgs.msg._Point
Point
p12
g3
Ntp13
Rp14
(lp15
F0.6975229311578979
aF-0.3350011361702857
aF0.827347577407012
abag1
(cgeometry_msgs.msg._Quaternion
Quaternion
p16
g3
Ntp17
Rp18
(lp19
F-0.09057448465774723
aF-0.7012332081848127
aF-0.12022559346512941
aF0.6968601417384813
ababsS'relativeFrame'
p20
I15
sS'pose'
p21
g1
(g8
g3
Ntp22
Rp23
(lp24
g1
(g12
g3
Ntp25
Rp26
(lp27
F0.5516986646405858
aF-0.42557443446149745
aF0.8178547531866129
abag1
(g16
g3
Ntp28
Rp29
(lp30
F-0.09719423419704669
aF-0.099195091906424
aF-0.23685374077891802
aF0.9615684687319769
ababsS'actionType'
p31
I3
sbag1
(g2
g3
Ntp32
Rp33
(dp34
g7
g1
(g8
g3
Ntp35
Rp36
(lp37
g1
(g12
g3
Ntp38
Rp39
(lp40
F0.6735345331093942
aF-0.29336186672204634
aF0.7104750780649679
abag1
(g16
g3
Ntp41
Rp42
(lp43
F-0.0024456226488787764
aF0.014397254383089253
aF-0.1700702930754192
aF0.9853237201089441
ababsg20
I9
sg21
g1
(g8
g3
Ntp44
Rp45
(lp46
g1
(g12
g3
Ntp47
Rp48
(lp49
F0.6421710499500298
aF-0.15526662689986878
aF0.7999983577066514
abag1
(g16
g3
Ntp50
Rp51
(lp52
F-0.048044505287801305
aF-0.0883069411116183
aF-0.15007050259424903
aF0.9835509411892549
ababsg31
I3
sbag1
(g2
g3
Ntp53
Rp54
(dp55
g7
g1
(g8
g3
Ntp56
Rp57
(lp58
g1
(g12
g3
Ntp59
Rp60
(lp61
F0.6732156541203101
aF-0.29253710139077516
aF0.7112220806039267
abag1
(g16
g3
Ntp62
Rp63
(lp64
F0.010942280585000115
aF0.016055619963895394
aF-0.16592724740128922
aF0.9859465665709299
ababsg20
I9
sg21
g1
(g8
g3
Ntp65
Rp66
(lp67
g1
(g12
g3
Ntp68
Rp69
(lp70
F0.6408768767589655
aF-0.15869420444477153
aF1.0068629100707367
abag1
(g16
g3
Ntp71
Rp72
(lp73
F-0.07885357037023472
aF-0.06231213242423095
aF-0.2526403668050407
aF0.9623264298839693
ababsg31
I3
sbag1
(g2
g3
Ntp74
Rp75
(dp76
g7
g1
(g8
g3
Ntp77
Rp78
(lp79
g1
(g12
g3
Ntp80
Rp81
(lp82
F0.8112001664823674
aF-0.06091508586221466
aF0.8262759084060891
abag1
(g16
g3
Ntp83
Rp84
(lp85
F-0.09747466670049294
aF-0.7059759713797369
aF-0.16027203499120699
aF0.6829417925312831
ababsg20
I15
sg21
g1
(g8
g3
Ntp86
Rp87
(lp88
g1
(g12
g3
Ntp89
Rp90
(lp91
F0.7781051476310291
aF0.1739481592859728
aF1.023629080871163
abag1
(g16
g3
Ntp92
Rp93
(lp94
F-0.07330768012284053
aF-0.03797179980349053
aF-0.2215637834457737
aF0.9716447994611432
ababsg31
I3
sbag1
(g2
g3
Ntp95
Rp96
(dp97
g7
g1
(g8
g3
Ntp98
Rp99
(lp100
g1
(g12
g3
Ntp101
Rp102
(lp103
F0.6734281910662487
aF-0.29355575640325515
aF0.7103869035345488
abag1
(g16
g3
Ntp104
Rp105
(lp106
F-0.010696316990634634
aF0.022682872719125894
aF-0.17319378160633703
aF0.9845684283486548
ababsg20
I9
sg21
g1
(g8
g3
Ntp107
Rp108
(lp109
g1
(g12
g3
Ntp110
Rp111
(lp112
F0.7642120120402592
aF0.165120041663016
aF0.8476676014904216
abag1
(g16
g3
Ntp113
Rp114
(lp115
F0.02617932202687982
aF0.0035920994282678197
aF-0.1988427652873997
aF0.9796750964543145
ababsg31
I3
sbag1
(g2
g3
Ntp116
Rp117
(dp118
g7
g1
(g8
g3
Ntp119
Rp120
(lp121
g1
(g12
g3
Ntp122
Rp123
(lp124
F0.6745242947268011
aF-0.29248115325770674
aF0.7108002279006164
abag1
(g16
g3
Ntp125
Rp126
(lp127
F0.008372304760142259
aF0.019825098161555886
aF-0.1360982287168179
aF0.9904615803432423
ababsg20
I9
sg21
g1
(g8
g3
Ntp128
Rp129
(lp130
g1
(g12
g3
Ntp131
Rp132
(lp133
F0.6327092296988985
aF-0.1462241700724465
aF0.8273826649586637
abag1
(g16
g3
Ntp134
Rp135
(lp136
F-0.07288424109896613
aF-0.06438812161054294
aF-0.22097915894901177
aF0.970417574297313
ababsg31
I3
sba.