(lp0
ccopy_reg
_reconstructor
p1
(cpose_executable
PoseExecutable
p2
c__builtin__
object
p3
Ntp4
Rp5
(dp6
S'arPose'
p7
g1
(cgeometry_msgs.msg._Pose
Pose
p8
g3
Ntp9
Rp10
(lp11
g1
(cgeometry_msgs.msg._Point
Point
p12
g3
Ntp13
Rp14
(lp15
F0.717458920392734
aF-0.15892336375336627
aF0.7115227998530679
abag1
(cgeometry_msgs.msg._Quaternion
Quaternion
p16
g3
Ntp17
Rp18
(lp19
F0.002844832096900982
aF0.018540386067757698
aF-0.11343951033070707
aF0.9933678263919807
ababsS'relativeFrame'
p20
I9
sS'pose'
p21
g1
(g8
g3
Ntp22
Rp23
(lp24
g1
(g12
g3
Ntp25
Rp26
(lp27
F0.6675427086178325
aF-0.5083559077158037
aF0.8681177035471884
abag1
(g16
g3
Ntp28
Rp29
(lp30
F-0.11026842282921251
aF-0.05361231619794206
aF-0.04797449528209097
aF0.9912946294019143
ababsS'actionType'
p31
I3
sbag1
(g2
g3
Ntp32
Rp33
(dp34
g7
g1
(g8
g3
Ntp35
Rp36
(lp37
g1
(g12
g3
Ntp38
Rp39
(lp40
F0.7177903406983481
aF-0.16159717586523176
aF0.7119444983304904
abag1
(g16
g3
Ntp41
Rp42
(lp43
F0.001469552180327066
aF0.014239144724907648
aF-0.07380888621386356
aF0.9971696623392438
ababsg20
I9
sg21
g1
(g8
g3
Ntp44
Rp45
(lp46
g1
(g12
g3
Ntp47
Rp48
(lp49
F0.6910928332483585
aF-0.3967792467533083
aF0.8328868608573348
abag1
(g16
g3
Ntp50
Rp51
(lp52
F-0.10338187949771659
aF-0.019997663289806594
aF-0.03579639950781093
aF0.9937962055858054
ababsg31
I3
sbag1
(g2
g3
Ntp53
Rp54
(dp55
g7
g1
(g8
g3
Ntp56
Rp57
(lp58
g1
(g12
g3
Ntp59
Rp60
(lp61
F0.7172512095493206
aF-0.16035916582082943
aF0.7128633327026107
abag1
(g16
g3
Ntp62
Rp63
(lp64
F-0.009219832479679994
aF-0.006539666999551711
aF-0.07171751012918078
aF0.9973609307494717
ababsg20
I9
sg21
g1
(g8
g3
Ntp65
Rp66
(lp67
g1
(g12
g3
Ntp68
Rp69
(lp70
F0.7748789879231895
aF-0.2229454815963414
aF0.856563273398633
abag1
(g16
g3
Ntp71
Rp72
(lp73
F-0.11550282421880655
aF-0.04625881208788345
aF0.09008905057914274
aF0.9881311567132403
ababsg31
I3
sbag1
(g2
g3
Ntp74
Rp75
(dp76
g7
g1
(g8
g3
Ntp77
Rp78
(lp79
g1
(g12
g3
Ntp80
Rp81
(lp82
F0.8128388610525306
aF-0.057738134747574034
aF0.8237697667270258
abag1
(g16
g3
Ntp83
Rp84
(lp85
F-0.008948003504706604
aF-0.706759238514065
aF-0.05380953086693411
aF0.705348032106264
ababsg20
I15
sg21
g1
(g8
g3
Ntp86
Rp87
(lp88
g1
(g12
g3
Ntp89
Rp90
(lp91
F0.7847191585236543
aF-0.23357542447990573
aF1.1054017857835374
abag1
(g16
g3
Ntp92
Rp93
(lp94
F-0.2785611334530018
aF-0.1786721059130741
aF0.07750628737916226
aF0.940464113570882
ababsg31
I3
sbag1
(g2
g3
Ntp95
Rp96
(dp97
g7
g1
(g8
g3
Ntp98
Rp99
(lp100
g1
(g12
g3
Ntp101
Rp102
(lp103
F0.7165215625633549
aF-0.16480147016375835
aF0.7124491490457899
abag1
(g16
g3
Ntp104
Rp105
(lp106
F0.015887368112749847
aF-0.0007118891719482402
aF-0.07978705389841984
aF0.9966850609788768
ababsg20
I9
sg21
g1
(g8
g3
Ntp107
Rp108
(lp109
g1
(g12
g3
Ntp110
Rp111
(lp112
F0.8511039755381824
aF0.1987915385150984
aF1.1215970803374824
abag1
(g16
g3
Ntp113
Rp114
(lp115
F-0.18233174276862107
aF0.027877582306799844
aF-0.04793751247574867
aF0.9816720281648665
ababsg31
I3
sbag1
(g2
g3
Ntp116
Rp117
(dp118
g7
g1
(g8
g3
Ntp119
Rp120
(lp121
g1
(g12
g3
Ntp122
Rp123
(lp124
F0.7167265671683913
aF-0.16499406783093679
aF0.7121121435265868
abag1
(g16
g3
Ntp125
Rp126
(lp127
F0.022400430555117205
aF0.01746759769610864
aF-0.07472351060108566
aF0.9967996291658228
ababsg20
I9
sg21
g1
(g8
g3
Ntp128
Rp129
(lp130
g1
(g12
g3
Ntp131
Rp132
(lp133
F0.8437689249037509
aF0.18617212844188485
aF0.846217633948569
abag1
(g16
g3
Ntp134
Rp135
(lp136
F-0.04200148628397062
aF0.025613729420582612
aF-0.06462167082760364
aF0.9966964691793362
ababsg31
I3
sbag1
(g2
g3
Ntp137
Rp138
(dp139
g7
g1
(g8
g3
Ntp140
Rp141
(lp142
g1
(g12
g3
Ntp143
Rp144
(lp145
F0.8131215833583003
aF-0.060603507130713864
aF0.8232380820670863
abag1
(g16
g3
Ntp146
Rp147
(lp148
F-0.043314451781436135
aF-0.7072100416992573
aF-0.026244136096910523
aF0.7051872520877951
ababsg20
I15
sg21
g1
(g8
g3
Ntp149
Rp150
(lp151
g1
(g12
g3
Ntp152
Rp153
(lp154
F0.8140926029808153
aF0.1090688769898469
aF0.8730508812536023
abag1
(g16
g3
Ntp155
Rp156
(lp157
F0.07719388364417312
aF0.022144358317833367
aF-0.18275584239998513
aF0.9798729681909247
ababsg31
I3
sbag1
(g2
g3
Ntp158
Rp159
(dp160
g7
g1
(g8
g3
Ntp161
Rp162
(lp163
g1
(g12
g3
Ntp164
Rp165
(lp166
F0.7166935593370212
aF-0.16458715894874187
aF0.7129955272277266
abag1
(g16
g3
Ntp167
Rp168
(lp169
F0.02055690951874308
aF-0.0028311118357919668
aF-0.07466667417433527
aF0.9969926208576247
ababsg20
I9
sg21
g1
(g8
g3
Ntp170
Rp171
(lp172
g1
(g12
g3
Ntp173
Rp174
(lp175
F0.8182234625258029
aF-0.07320278651028499
aF0.8724119103234214
abag1
(g16
g3
Ntp176
Rp177
(lp178
F0.07927359102970442
aF0.013815388301170368
aF-0.2947925052986814
aF0.9521671132900306
ababsg31
I3
sbag1
(g2
g3
Ntp179
Rp180
(dp181
g7
Nsg20
S'base_link'
p182
sg21
g1
(g8
g3
Ntp183
Rp184
(lp185
g1
(g12
g3
Ntp186
Rp187
(lp188
F0.7664538768081506
aF0.2993131238309911
aF1.1153483571134406
abag1
(g16
g3
Ntp189
Rp190
(lp191
F0.24714293895498216
aF-0.08563833238397657
aF-0.04594199203010984
aF0.964093240884662
ababsg31
I3
sba.