(lp0
ccopy_reg
_reconstructor
p1
(cpose_executable
PoseExecutable
p2
c__builtin__
object
p3
Ntp4
Rp5
(dp6
S'arPose'
p7
NsS'relativeFrame'
p8
NsS'pose'
p9
NsS'actionType'
p10
I2
sbag1
(g2
g3
Ntp11
Rp12
(dp13
g7
g1
(cgeometry_msgs.msg._Pose
Pose
p14
g3
Ntp15
Rp16
(lp17
g1
(cgeometry_msgs.msg._Point
Point
p18
g3
Ntp19
Rp20
(lp21
F0.7130012508127046
aF-0.03714080875064034
aF0.7113274959929998
abag1
(cgeometry_msgs.msg._Quaternion
Quaternion
p22
g3
Ntp23
Rp24
(lp25
F0.011181948358906638
aF-0.0013177260879199894
aF0.0036073555432427898
aF0.9999301048647553
ababsg8
I9
sg9
g1
(g14
g3
Ntp26
Rp27
(lp28
g1
(g18
g3
Ntp29
Rp30
(lp31
F0.6113955519522402
aF-0.4131904735603225
aF0.8558998331161187
abag1
(g22
g3
Ntp32
Rp33
(lp34
F0.9972048725369621
aF0.04013721092490601
aF-0.016071640589989833
aF0.06093561238271947
ababsg10
I3
sbag1
(g2
g3
Ntp35
Rp36
(dp37
g7
g1
(g14
g3
Ntp38
Rp39
(lp40
g1
(g18
g3
Ntp41
Rp42
(lp43
F0.741979331065422
aF-0.2044188285886358
aF0.8247411407151866
abag1
(g22
g3
Ntp44
Rp45
(lp46
F-0.007255560947191551
aF-0.6964207233386798
aF-0.0051326255293263415
aF0.7175786988860159
ababsg8
I15
sg9
g1
(g14
g3
Ntp47
Rp48
(lp49
g1
(g18
g3
Ntp50
Rp51
(lp52
F0.6134632912105368
aF-0.31353204146477043
aF0.8326601083846675
abag1
(g22
g3
Ntp53
Rp54
(lp55
F0.994417123975714
aF0.035729070909967305
aF-0.06298647911154225
aF0.07675102921076285
ababsg10
I3
sbag1
(g2
g3
Ntp56
Rp57
(dp58
g7
g1
(g14
g3
Ntp59
Rp60
(lp61
g1
(g18
g3
Ntp62
Rp63
(lp64
F0.7133001631818782
aF-0.04190380431022657
aF0.7121574334246332
abag1
(g22
g3
Ntp65
Rp66
(lp67
F-0.01854302508019689
aF-0.0068045864106573714
aF0.03767028584070918
aF0.9990949921750857
ababsg8
I9
sg9
g1
(g14
g3
Ntp68
Rp69
(lp70
g1
(g18
g3
Ntp71
Rp72
(lp73
F0.6490129463753743
aF-0.23596357538003498
aF0.8329949556298988
abag1
(g22
g3
Ntp74
Rp75
(lp76
F0.9900360401702512
aF0.10016358210088613
aF-0.057712583334038406
aF0.08040617954883605
ababsg10
I3
sbag1
(g2
g3
Ntp77
Rp78
(dp79
g7
g1
(g14
g3
Ntp80
Rp81
(lp82
g1
(g18
g3
Ntp83
Rp84
(lp85
F0.7604600529623586
aF-0.11364356931499033
aF0.8245251598366332
abag1
(g22
g3
Ntp86
Rp87
(lp88
F0.03627838386792579
aF-0.7046630175525385
aF0.0583679399538786
aF0.7062061272342676
ababsg8
I15
sg9
g1
(g14
g3
Ntp89
Rp90
(lp91
g1
(g18
g3
Ntp92
Rp93
(lp94
F0.6632035608291611
aF-0.2435769178026362
aF1.0792915616635166
abag1
(g22
g3
Ntp95
Rp96
(lp97
F0.9243916607721432
aF0.07656517492306275
aF0.0545538595708017
aF0.3696778433850873
ababsg10
I3
sbag1
(g2
g3
Ntp98
Rp99
(dp100
g7
g1
(g14
g3
Ntp101
Rp102
(lp103
g1
(g18
g3
Ntp104
Rp105
(lp106
F0.7133515965921866
aF-0.04750023946714932
aF0.7125387168107378
abag1
(g22
g3
Ntp107
Rp108
(lp109
F-0.024005957018757754
aF-0.012054593974315034
aF-0.008195694686732676
aF0.9996055378899869
ababsg8
I9
sg9
g1
(g14
g3
Ntp110
Rp111
(lp112
g1
(g18
g3
Ntp113
Rp114
(lp115
F0.7743331730018933
aF0.1950625528216153
aF1.1120929998675955
abag1
(g22
g3
Ntp116
Rp117
(lp118
F0.8122502992048466
aF-0.4787082686766948
aF0.0927287587156986
aF-0.3201393794103504
ababsg10
I3
sbag1
(g2
g3
Ntp119
Rp120
(dp121
g7
g1
(g14
g3
Ntp122
Rp123
(lp124
g1
(g18
g3
Ntp125
Rp126
(lp127
F0.759821706469255
aF-0.11995560792346004
aF0.825485190336209
abag1
(g22
g3
Ntp128
Rp129
(lp130
F0.019154384442361783
aF-0.6991575830564757
aF0.05015046282189956
aF0.7129493072372052
ababsg8
I15
sg9
g1
(g14
g3
Ntp131
Rp132
(lp133
g1
(g18
g3
Ntp134
Rp135
(lp136
F0.7769202825121956
aF0.1956253089206221
aF0.8787378962283798
abag1
(g22
g3
Ntp137
Rp138
(lp139
F0.8479863471398814
aF-0.5086675630982285
aF0.019560054980659443
aF-0.1476274688708841
ababsg10
I3
sbag1
(g2
g3
Ntp140
Rp141
(dp142
g7
g1
(g14
g3
Ntp143
Rp144
(lp145
g1
(g18
g3
Ntp146
Rp147
(lp148
F0.7141307766473749
aF-0.046235183713369335
aF0.712954572821159
abag1
(g22
g3
Ntp149
Rp150
(lp151
F-0.00558142435796119
aF-0.008827163305612454
aF-0.0030765169369912537
aF0.9999407302103706
ababsg8
I9
sg9
g1
(g14
g3
Ntp152
Rp153
(lp154
g1
(g18
g3
Ntp155
Rp156
(lp157
F0.7710989860150342
aF0.10006392476303978
aF0.8642284050904464
abag1
(g22
g3
Ntp158
Rp159
(lp160
F0.8234343090969737
aF-0.5574098063105163
aF-0.026942138860300575
aF-0.10258834039253463
ababsg10
I3
sbag1
(g2
g3
Ntp161
Rp162
(dp163
g7
g1
(g14
g3
Ntp164
Rp165
(lp166
g1
(g18
g3
Ntp167
Rp168
(lp169
F0.7126962376915962
aF-0.0461630651166446
aF0.7125419905010841
abag1
(g22
g3
Ntp170
Rp171
(lp172
F-0.008213633135029747
aF0.0052318910195433685
aF-0.0076216003772448535
aF0.9999235344538963
ababsg8
I9
sg9
g1
(g14
g3
Ntp173
Rp174
(lp175
g1
(g18
g3
Ntp176
Rp177
(lp178
F0.7772240053440008
aF0.027453319166987962
aF0.864888887609753
abag1
(g22
g3
Ntp179
Rp180
(lp181
F0.794887613286294
aF-0.5972328095765991
aF-0.02124192598651121
aF-0.10495443768438097
ababsg10
I3
sbag1
(g2
g3
Ntp182
Rp183
(dp184
g7
Nsg8
S'base_link'
p185
sg9
g1
(g14
g3
Ntp186
Rp187
(lp188
g1
(g18
g3
Ntp189
Rp190
(lp191
F0.626867830555132
aF0.42610088068907764
aF1.1680821656065525
abag1
(g22
g3
Ntp192
Rp193
(lp194
F0.8808796221433568
aF-0.30024459490160227
aF-0.02581093575553889
aF-0.365017903835378
ababsg10
I3
sbag1
(g2
g3
Ntp195
Rp196
(dp197
g7
Nsg8
Nsg9
Nsg10
I1
sba.