(lp0
ccopy_reg
_reconstructor
p1
(cpose_executable
PoseExecutable
p2
c__builtin__
object
p3
Ntp4
Rp5
(dp6
S'arPose'
p7
NsS'relativeFrame'
p8
S'base_link'
p9
sS'pose'
p10
g1
(cgeometry_msgs.msg._Pose
Pose
p11
g3
Ntp12
Rp13
(lp14
g1
(cgeometry_msgs.msg._Point
Point
p15
g3
Ntp16
Rp17
(lp18
F0.7501027890701213
aF-0.4417595205964001
aF1.0356523157857485
abag1
(cgeometry_msgs.msg._Quaternion
Quaternion
p19
g3
Ntp20
Rp21
(lp22
F-0.4380954529290166
aF0.13655559113067195
aF0.07751457280911697
aF0.8851081491298635
ababsS'actionType'
p23
I3
sbag1
(g2
g3
Ntp24
Rp25
(dp26
g7
g1
(g11
g3
Ntp27
Rp28
(lp29
g1
(g15
g3
Ntp30
Rp31
(lp32
F0.7503004327650469
aF0.11270392274118618
aF0.8252715725746047
abag1
(g19
g3
Ntp33
Rp34
(lp35
F0.1186377521133347
aF-0.6823132483153044
aF0.10839368473413877
aF0.7131791668694965
ababsg8
I15
sg10
g1
(g11
g3
Ntp36
Rp37
(lp38
g1
(g15
g3
Ntp39
Rp40
(lp41
F0.7263610461402217
aF-0.23495856274931054
aF0.8990241439297357
abag1
(g19
g3
Ntp42
Rp43
(lp44
F-0.08780199339224962
aF0.052991763129087585
aF0.6037292291613301
aF0.7905654311017426
ababsg23
I3
sbag1
(g2
g3
Ntp45
Rp46
(dp47
g7
g1
(g11
g3
Ntp48
Rp49
(lp50
g1
(g15
g3
Ntp51
Rp52
(lp53
F0.5082358935636284
aF0.49701069389369423
aF0.714451691038525
abag1
(g19
g3
Ntp54
Rp55
(lp56
F0.007566274860359732
aF0.007416779254465565
aF0.18820422058079803
aF0.9820727642215734
ababsg8
I9
sg10
g1
(g11
g3
Ntp57
Rp58
(lp59
g1
(g15
g3
Ntp60
Rp61
(lp62
F0.7691379919770657
aF-0.10644951019682779
aF0.8981672933592514
abag1
(g19
g3
Ntp63
Rp64
(lp65
F-0.019418852497646473
aF0.002267822275065139
aF0.6371121875041782
aF0.7705230857563219
ababsg23
I3
sbag1
(g2
g3
Ntp66
Rp67
(dp68
g7
g1
(g11
g3
Ntp69
Rp70
(lp71
g1
(g15
g3
Ntp72
Rp73
(lp74
F0.5090841210852849
aF0.4973206609005314
aF0.7136736451178204
abag1
(g19
g3
Ntp75
Rp76
(lp77
F0.010198669514929516
aF0.0166779336990461
aF0.1577791544283625
aF0.9872808982733974
ababsg8
I9
sg10
g1
(g11
g3
Ntp78
Rp79
(lp80
g1
(g15
g3
Ntp81
Rp82
(lp83
F0.7171812862025294
aF0.29180403056243204
aF0.8979916362323921
abag1
(g19
g3
Ntp84
Rp85
(lp86
F-0.01915623010541538
aF-0.002791518956710242
aF0.8213126919067405
aF0.5701497245311674
ababsg23
I3
sbag1
(g2
g3
Ntp87
Rp88
(dp89
g7
g1
(g11
g3
Ntp90
Rp91
(lp92
g1
(g15
g3
Ntp93
Rp94
(lp95
F0.6182391006935322
aF0.4780804237846179
aF0.8260898133235522
abag1
(g19
g3
Ntp96
Rp97
(lp98
F0.19045357827508064
aF-0.6723725414400034
aF0.1885941669028503
aF0.6899817680561917
ababsg8
I15
sg10
g1
(g11
g3
Ntp99
Rp100
(lp101
g1
(g15
g3
Ntp102
Rp103
(lp104
F0.6735794039620971
aF0.2913685915291951
aF1.1765469233169537
abag1
(g19
g3
Ntp105
Rp106
(lp107
F-0.22057533737449603
aF-0.14399851317440257
aF0.7913560513553546
aF0.5516942529417449
ababsg23
I3
sbag1
(g2
g3
Ntp108
Rp109
(dp110
g7
g1
(g11
g3
Ntp111
Rp112
(lp113
g1
(g15
g3
Ntp114
Rp115
(lp116
F0.5157283459634657
aF0.49459193696794823
aF0.7100577163160195
abag1
(g19
g3
Ntp117
Rp118
(lp119
F0.002085226848213472
aF-0.01693785548251155
aF0.19090241521187437
aF0.981460660824935
ababsg8
I9
sg10
g1
(g11
g3
Ntp120
Rp121
(lp122
g1
(g15
g3
Ntp123
Rp124
(lp125
F0.42307180937682426
aF0.5630089663448377
aF1.2682672331719236
abag1
(g19
g3
Ntp126
Rp127
(lp128
F0.9558239451322983
aF-0.13078975831831197
aF-0.22162965991782055
aF-0.1420384415412879
ababsg23
I3
sbag1
(g2
g3
Ntp129
Rp130
(dp131
g7
g1
(g11
g3
Ntp132
Rp133
(lp134
g1
(g15
g3
Ntp135
Rp136
(lp137
F0.6310712785848984
aF0.4749202558159247
aF0.8197030041328953
abag1
(g19
g3
Ntp138
Rp139
(lp140
F0.19423668718975798
aF-0.6634743060992785
aF0.1922751653270416
aF0.6964942320608893
ababsg8
I15
sg10
g1
(g11
g3
Ntp141
Rp142
(lp143
g1
(g15
g3
Ntp144
Rp145
(lp146
F0.3145082499468348
aF0.718776663966225
aF0.8995979778331353
abag1
(g19
g3
Ntp147
Rp148
(lp149
F0.9883804353799932
aF-0.14492153406759878
aF-0.008697634290361488
aF0.04501349885645466
ababsg23
I3
sbag1
(g2
g3
Ntp150
Rp151
(dp152
g7
g1
(g11
g3
Ntp153
Rp154
(lp155
g1
(g15
g3
Ntp156
Rp157
(lp158
F0.5156596651501737
aF0.4943364824929976
aF0.7094132376678225
abag1
(g19
g3
Ntp159
Rp160
(lp161
F0.004387940575170755
aF-0.005596207722261717
aF0.189655244100474
aF0.9818249929706555
ababsg8
I9
sg10
g1
(g11
g3
Ntp162
Rp163
(lp164
g1
(g15
g3
Ntp165
Rp166
(lp167
F0.4643022421540524
aF0.6431729983338409
aF0.8615443914118517
abag1
(g19
g3
Ntp168
Rp169
(lp170
F0.9646626166807829
aF-0.2519004021909128
aF0.03487769886091047
aF0.06896208724225794
ababsg23
I3
sbag1
(g2
g3
Ntp171
Rp172
(dp173
g7
Nsg8
g9
sg10
g1
(g11
g3
Ntp174
Rp175
(lp176
g1
(g15
g3
Ntp177
Rp178
(lp179
F0.6131860797955646
aF0.5127063712030707
aF0.8610291193005455
abag1
(g19
g3
Ntp180
Rp181
(lp182
F0.9245895246889193
aF-0.37305893183386
aF0.025131708653137665
aF0.07300439325596343
ababsg23
I3
sba.