(lp0
ccopy_reg
_reconstructor
p1
(cpose_executable
PoseExecutable
p2
c__builtin__
object
p3
Ntp4
Rp5
(dp6
S'arPose'
p7
NsS'relativeFrame'
p8
NsS'pose'
p9
NsS'actionType'
p10
I1
sbag1
(g2
g3
Ntp11
Rp12
(dp13
g7
g1
(cgeometry_msgs.msg._Pose
Pose
p14
g3
Ntp15
Rp16
(lp17
g1
(cgeometry_msgs.msg._Point
Point
p18
g3
Ntp19
Rp20
(lp21
F0.7995456356462272
aF-0.1313273069776822
aF0.8250941880301969
abag1
(cgeometry_msgs.msg._Quaternion
Quaternion
p22
g3
Ntp23
Rp24
(lp25
F0.020819598568600037
aF-0.7086940250672097
aF-0.00954869669294031
aF0.7051440601330667
ababsg8
I15
sg9
g1
(g14
g3
Ntp26
Rp27
(lp28
g1
(g18
g3
Ntp29
Rp30
(lp31
F0.6863696276895316
aF0.2055481368469781
aF1.2981746941223202
abag1
(g22
g3
Ntp32
Rp33
(lp34
F0.8125814527788908
aF-0.48465326099339806
aF0.09396270020385689
aF-0.30982835599507746
ababsg10
I3
sbag1
(g2
g3
Ntp35
Rp36
(dp37
g7
g1
(g14
g3
Ntp38
Rp39
(lp40
g1
(g18
g3
Ntp41
Rp42
(lp43
F0.6318457219507435
aF-0.22594737970828532
aF0.7150805076362795
abag1
(g22
g3
Ntp44
Rp45
(lp46
F-0.005126882681225159
aF0.014053654577142841
aF-0.03374314662451208
aF0.9993185727899168
ababsg8
I9
sg9
g1
(g14
g3
Ntp47
Rp48
(lp49
g1
(g18
g3
Ntp50
Rp51
(lp52
F0.7614706998829831
aF0.16320181643036577
aF0.8615216902289915
abag1
(g22
g3
Ntp53
Rp54
(lp55
F0.807777340691335
aF-0.5874939105204299
aF-0.03217319988119956
aF0.03621544113292438
ababsg10
I3
sbag1
(g2
g3
Ntp56
Rp57
(dp58
g7
g1
(g14
g3
Ntp59
Rp60
(lp61
g1
(g18
g3
Ntp62
Rp63
(lp64
F0.7987286103423141
aF-0.1298515011949341
aF0.82753641778009
abag1
(g22
g3
Ntp65
Rp66
(lp67
F0.020602845667017384
aF-0.7114259335362951
aF0.027074804382641066
aF0.7019370476118738
ababsg8
I15
sg9
g1
(g14
g3
Ntp68
Rp69
(lp70
g1
(g18
g3
Ntp71
Rp72
(lp73
F0.7843531277586141
aF0.07097217380437637
aF0.8119485121772114
abag1
(g22
g3
Ntp74
Rp75
(lp76
F0.8029975918976912
aF-0.5889668480151962
aF-0.09105035204028734
aF0.0047699831125002
ababsg10
I3
sbag1
(g2
g3
Ntp77
Rp78
(dp79
g7
g1
(g14
g3
Ntp80
Rp81
(lp82
g1
(g18
g3
Ntp83
Rp84
(lp85
F0.6304098745735411
aF-0.22593983328360673
aF0.7158248993271863
abag1
(g22
g3
Ntp86
Rp87
(lp88
F-0.02280682410856525
aF0.020968345272890865
aF-0.013007569452929123
aF0.9994353307780974
ababsg8
I9
sg9
g1
(g14
g3
Ntp89
Rp90
(lp91
g1
(g18
g3
Ntp92
Rp93
(lp94
F0.7657612039607063
aF-0.18085999905863404
aF0.8125760822591348
abag1
(g22
g3
Ntp95
Rp96
(lp97
F-0.6930562783159929
aF0.7151521506549319
aF0.09017251204569135
aF0.009965669660394947
ababsg10
I3
sbag1
(g2
g3
Ntp98
Rp99
(dp100
g7
Nsg8
Nsg9
Nsg10
I2
sbag1
(g2
g3
Ntp101
Rp102
(dp103
g7
Nsg8
S'base_link'
p104
sg9
g1
(g14
g3
Ntp105
Rp106
(lp107
g1
(g18
g3
Ntp108
Rp109
(lp110
F0.6295819898023145
aF0.31495925939443364
aF1.3386608901891288
abag1
(g22
g3
Ntp111
Rp112
(lp113
F0.8528695134531903
aF-0.33911798080501493
aF0.03400458502460104
aF-0.39554554265489145
ababsg10
I3
sba.