(lp0
ccopy_reg
_reconstructor
p1
(cpose_executable
PoseExecutable
p2
c__builtin__
object
p3
Ntp4
Rp5
(dp6
S'frame'
p7
S'base_link'
p8
sS'pose'
p9
g1
(cgeometry_msgs.msg._Pose
Pose
p10
g3
Ntp11
Rp12
(lp13
g1
(cgeometry_msgs.msg._Point
Point
p14
g3
Ntp15
Rp16
(lp17
F0.0145737273515468
aF0.159816881070862
aF0.36182170476899744
abag1
(cgeometry_msgs.msg._Quaternion
Quaternion
p18
g3
Ntp19
Rp20
(lp21
F-0.013301653614168922
aF0.7345551694993927
aF0.03557930331747863
aF0.6774849682083656
ababsS'actionType'
p22
I3
sbag1
(g2
g3
Ntp23
Rp24
(dp25
g7
I3
sg9
g1
(g10
g3
Ntp26
Rp27
(lp28
g1
(g14
g3
Ntp29
Rp30
(lp31
F0.4543059258665539
aF-0.3214215815334643
aF0.6984394634648629
abag1
(g18
g3
Ntp32
Rp33
(lp34
F-0.004072388300447275
aF-0.07673573283895463
aF-0.004991669465516069
aF0.9970306545914955
ababsg22
I3
sbag1
(g2
g3
Ntp35
Rp36
(dp37
g7
Nsg9
Nsg22
I2
sbag1
(g2
g3
Ntp38
Rp39
(dp40
g7
I9
sg9
g1
(g10
g3
Ntp41
Rp42
(lp43
g1
(g14
g3
Ntp44
Rp45
(lp46
F0.4542139144417013
aF0.010838598435835643
aF0.6983930211448612
abag1
(g18
g3
Ntp47
Rp48
(lp49
F0.00262994003276303
aF-0.07234299026840431
aF0.0002649184551515326
aF0.9973763106233583
ababsg22
I3
sbag1
(g2
g3
Ntp50
Rp51
(dp52
g7
Nsg9
Nsg22
I1
sba.