(lp0
ccopy_reg
_reconstructor
p1
(cpose_executable
PoseExecutable
p2
c__builtin__
object
p3
Ntp4
Rp5
(dp6
S'arPose'
p7
g1
(cgeometry_msgs.msg._Pose
Pose
p8
g3
Ntp9
Rp10
(lp11
g1
(cgeometry_msgs.msg._Point
Point
p12
g3
Ntp13
Rp14
(lp15
F0.8102869964963197
aF0.16931090088907036
aF1.1402550981006447
abag1
(cgeometry_msgs.msg._Quaternion
Quaternion
p16
g3
Ntp17
Rp18
(lp19
F0.7148839407134931
aF0.057949994855346396
aF-0.6936712207794978
aF0.0663550063559136
ababsS'relativeFrame'
p20
I8
sS'pose'
p21
g1
(g8
g3
Ntp22
Rp23
(lp24
g1
(g12
g3
Ntp25
Rp26
(lp27
F0.33920499140715565
aF0.20546529132957328
aF0.9146461444126304
abag1
(g16
g3
Ntp28
Rp29
(lp30
F-0.00311770207007844
aF-0.00014569491400362943
aF-0.0352459707175074
aF0.999373794060548
ababsS'actionType'
p31
I3
sbag1
(g2
g3
Ntp32
Rp33
(dp34
g7
g1
(g8
g3
Ntp35
Rp36
(lp37
g1
(g12
g3
Ntp38
Rp39
(lp40
F0.8101942164049865
aF0.16941816509066623
aF1.140384763268579
abag1
(g16
g3
Ntp41
Rp42
(lp43
F0.7201340247737411
aF0.0600483083739316
aF-0.6881698984555958
aF0.06498752098839143
ababsg20
I8
sg21
g1
(g8
g3
Ntp44
Rp45
(lp46
g1
(g12
g3
Ntp47
Rp48
(lp49
F0.33958079289690407
aF0.20472202999304548
aF0.8493774164567818
abag1
(g16
g3
Ntp50
Rp51
(lp52
F-0.0029698861447876226
aF-0.0012225025683665288
aF-0.04025434068564044
aF0.9991843039798622
ababsg31
I3
sbag1
(g2
g3
Ntp53
Rp54
(dp55
g7
g1
(g8
g3
Ntp56
Rp57
(lp58
g1
(g12
g3
Ntp59
Rp60
(lp61
F0.8123644236087478
aF0.1670537711723358
aF1.141965077631602
abag1
(g16
g3
Ntp62
Rp63
(lp64
F0.7181732008324616
aF0.059433936090299934
aF-0.6902104938294413
aF0.06560743139759109
ababsg20
I8
sg21
g1
(g8
g3
Ntp65
Rp66
(lp67
g1
(g12
g3
Ntp68
Rp69
(lp70
F0.5473357037546066
aF0.19020652427468243
aF0.8173415165136045
abag1
(g16
g3
Ntp71
Rp72
(lp73
F-0.000985507603673222
aF-0.004935141601922358
aF-0.035207399351441175
aF0.9993673559722872
ababsg31
I3
sbag1
(g2
g3
Ntp74
Rp75
(dp76
g7
Nsg20
Nsg21
Nsg31
I1
sbag1
(g2
g3
Ntp77
Rp78
(dp79
g7
g1
(g8
g3
Ntp80
Rp81
(lp82
g1
(g12
g3
Ntp83
Rp84
(lp85
F0.8129038580200467
aF0.16846661696389542
aF1.1407134195548014
abag1
(g16
g3
Ntp86
Rp87
(lp88
F0.7219019945371012
aF0.061519795022771044
aF-0.6860110504132613
aF0.06679568709583807
ababsg20
I8
sg21
g1
(g8
g3
Ntp89
Rp90
(lp91
g1
(g12
g3
Ntp92
Rp93
(lp94
F0.4031474380965967
aF0.20199536761956965
aF0.817213018455316
abag1
(g16
g3
Ntp95
Rp96
(lp97
F-0.0007894894534396014
aF0.0020625781770838105
aF-0.034336925751604686
aF0.9994078736970182
ababsg31
I3
sbag1
(g2
g3
Ntp98
Rp99
(dp100
g7
Nsg20
Nsg21
Nsg31
I2
sbag1
(g2
g3
Ntp101
Rp102
(dp103
g7
g1
(g8
g3
Ntp104
Rp105
(lp106
g1
(g12
g3
Ntp107
Rp108
(lp109
F0.8134348769754713
aF0.16826743126311933
aF1.1405669461950345
abag1
(g16
g3
Ntp110
Rp111
(lp112
F0.7276219039080869
aF0.046512871628124376
aF-0.6825559541843493
aF0.050202461429383664
ababsg20
I8
sg21
g1
(g8
g3
Ntp113
Rp114
(lp115
g1
(g12
g3
Ntp116
Rp117
(lp118
F0.403879785787549
aF0.20136738148080477
aF0.9962646008550617
abag1
(g16
g3
Ntp119
Rp120
(lp121
F-0.0011739046037978146
aF-0.0009763205572521264
aF-0.04060625859803567
aF0.9991740591652788
ababsg31
I3
sbag1
(g2
g3
Ntp122
Rp123
(dp124
g7
g1
(g8
g3
Ntp125
Rp126
(lp127
g1
(g12
g3
Ntp128
Rp129
(lp130
F0.8182115207468237
aF0.16740003434964762
aF1.1432333811188184
abag1
(g16
g3
Ntp131
Rp132
(lp133
F0.7145724334225546
aF0.04160635201215939
aF-0.697202276548118
aF0.03954913957257005
ababsg20
I8
sg21
g1
(g8
g3
Ntp134
Rp135
(lp136
g1
(g12
g3
Ntp137
Rp138
(lp139
F0.595091153051214
aF0.18580897540858313
aF0.99528844714595
abag1
(g16
g3
Ntp140
Rp141
(lp142
F0.00369355939398392
aF-0.0019707517406540413
aF-0.0423831874150715
aF0.9990926579557667
ababsg31
I3
sbag1
(g2
g3
Ntp143
Rp144
(dp145
g7
g1
(g8
g3
Ntp146
Rp147
(lp148
g1
(g12
g3
Ntp149
Rp150
(lp151
F0.8143183674948336
aF0.1683074710492503
aF1.1409633059370516
abag1
(g16
g3
Ntp152
Rp153
(lp154
F0.7249819349937849
aF0.03645015766181616
aF-0.6860538713462171
aF0.04901699246143374
ababsg20
I8
sg21
g1
(g8
g3
Ntp155
Rp156
(lp157
g1
(g12
g3
Ntp158
Rp159
(lp160
F0.4051695158800624
aF0.20122963599908267
aF0.9959584048965779
abag1
(g16
g3
Ntp161
Rp162
(lp163
F0.004451998422928497
aF0.0016737657869269418
aF-0.03575801082591195
aF0.9993491596433685
ababsg31
I3
sbag1
(g2
g3
Ntp164
Rp165
(dp166
g7
Nsg20
Nsg21
Nsg31
I1
sbag1
(g2
g3
Ntp167
Rp168
(dp169
g7
g1
(g8
g3
Ntp170
Rp171
(lp172
g1
(g12
g3
Ntp173
Rp174
(lp175
F0.814186630767643
aF0.16755051926340978
aF1.1413331769472064
abag1
(g16
g3
Ntp176
Rp177
(lp178
F0.7240543410675123
aF0.06044207889206829
aF-0.684162591511765
aF0.06335309508146587
ababsg20
I8
sg21
g1
(g8
g3
Ntp179
Rp180
(lp181
g1
(g12
g3
Ntp182
Rp183
(lp184
F0.40469340450512603
aF0.20167356187436017
aF0.7936845980764837
abag1
(g16
g3
Ntp185
Rp186
(lp187
F0.0036785095965140794
aF0.00017558789238898126
aF-0.035040218217365984
aF0.9993791176742287
ababsg31
I3
sbag1
(g2
g3
Ntp188
Rp189
(dp190
g7
g1
(g8
g3
Ntp191
Rp192
(lp193
g1
(g12
g3
Ntp194
Rp195
(lp196
F0.8128394741333129
aF0.1675090113105633
aF1.1423408473595904
abag1
(g16
g3
Ntp197
Rp198
(lp199
F0.7206481851970217
aF0.05766511583257494
aF-0.6873857970944534
aF0.0695822789298969
ababsg20
I8
sg21
g1
(g8
g3
Ntp200
Rp201
(lp202
g1
(g12
g3
Ntp203
Rp204
(lp205
F0.5474767144359519
aF0.18999716351979515
aF0.7940536318815994
abag1
(g16
g3
Ntp206
Rp207
(lp208
F0.003793138197985336
aF0.0023396205476073095
aF-0.03558412141134001
aF0.9993567474038924
ababsg31
I3
sbag1
(g2
g3
Ntp209
Rp210
(dp211
g7
Nsg20
Nsg21
Nsg31
I2
sbag1
(g2
g3
Ntp212
Rp213
(dp214
g7
g1
(g8
g3
Ntp215
Rp216
(lp217
g1
(g12
g3
Ntp218
Rp219
(lp220
F0.8137087177694047
aF0.16770806988627712
aF1.1410528987174002
abag1
(g16
g3
Ntp221
Rp222
(lp223
F0.7259062527179334
aF0.0562063362208635
aF-0.682668446685195
aF0.06216712904790142
ababsg20
I8
sg21
g1
(g8
g3
Ntp224
Rp225
(lp226
g1
(g12
g3
Ntp227
Rp228
(lp229
F0.3740279231631815
aF0.2038146059788767
aF0.8186046114517073
abag1
(g16
g3
Ntp230
Rp231
(lp232
F-0.000910236459551035
aF0.004344701202227798
aF-0.035214843885118974
aF0.9993699063966244
ababsg31
I3
sba.