(lp0
ccopy_reg
_reconstructor
p1
(cpose_executable
PoseExecutable
p2
c__builtin__
object
p3
Ntp4
Rp5
(dp6
S'arPose'
p7
NsS'relativeFrame'
p8
NsS'pose'
p9
NsS'actionType'
p10
I2
sbag1
(g2
g3
Ntp11
Rp12
(dp13
g7
g1
(cgeometry_msgs.msg._Pose
Pose
p14
g3
Ntp15
Rp16
(lp17
g1
(cgeometry_msgs.msg._Point
Point
p18
g3
Ntp19
Rp20
(lp21
F0.7475925919450358
aF0.06747701272000502
aF1.064212406123126
abag1
(cgeometry_msgs.msg._Quaternion
Quaternion
p22
g3
Ntp23
Rp24
(lp25
F0.7155685711251419
aF-0.053248053685518666
aF-0.6963404695787561
aF-0.015369294826511245
ababsg8
I2
sg9
g1
(g14
g3
Ntp26
Rp27
(lp28
g1
(g18
g3
Ntp29
Rp30
(lp31
F0.4400066922392683
aF0.06348147235455523
aF1.0142226896354238
abag1
(g22
g3
Ntp32
Rp33
(lp34
F-0.003946767044353235
aF0.021157639996721395
aF-0.0008195255180363244
aF0.9997680259328121
ababsg10
I3
sbag1
(g2
g3
Ntp35
Rp36
(dp37
g7
g1
(g14
g3
Ntp38
Rp39
(lp40
g1
(g18
g3
Ntp41
Rp42
(lp43
F0.7475925919450358
aF0.06747701272000502
aF1.064212406123126
abag1
(g22
g3
Ntp44
Rp45
(lp46
F0.7155685711251419
aF-0.053248053685518666
aF-0.6963404695787561
aF-0.015369294826511245
ababsg8
I2
sg9
g1
(g14
g3
Ntp47
Rp48
(lp49
g1
(g18
g3
Ntp50
Rp51
(lp52
F0.5212377698666358
aF0.06413253109872627
aF1.0114024761132572
abag1
(g22
g3
Ntp53
Rp54
(lp55
F-0.0005762805165023742
aF0.015766447369845855
aF0.0046547993126574965
aF0.9998647007877911
ababsg10
I3
sbag1
(g2
g3
Ntp56
Rp57
(dp58
g7
g1
(g14
g3
Ntp59
Rp60
(lp61
g1
(g18
g3
Ntp62
Rp63
(lp64
F0.7475925919450358
aF0.06747701272000502
aF1.064212406123126
abag1
(g22
g3
Ntp65
Rp66
(lp67
F0.7155685711251419
aF-0.053248053685518666
aF-0.6963404695787561
aF-0.015369294826511245
ababsg8
I2
sg9
g1
(g14
g3
Ntp68
Rp69
(lp70
g1
(g18
g3
Ntp71
Rp72
(lp73
F0.4192440070958989
aF0.06355974884842491
aF0.9105262306180106
abag1
(g22
g3
Ntp74
Rp75
(lp76
F0.0001993152578605255
aF0.017543842624128517
aF0.006370141398162943
aF0.999825782403102
ababsg10
I3
sbag1
(g2
g3
Ntp77
Rp78
(dp79
g7
Nsg8
Nsg9
Nsg10
I1
sba.