(lp0
ccopy_reg
_reconstructor
p1
(cpose_executable
PoseExecutable
p2
c__builtin__
object
p3
Ntp4
Rp5
(dp6
S'arPose'
p7
NsS'relativeFrame'
p8
NsS'pose'
p9
NsS'actionType'
p10
I2
sbag1
(g2
g3
Ntp11
Rp12
(dp13
g7
g1
(cgeometry_msgs.msg._Pose
Pose
p14
g3
Ntp15
Rp16
(lp17
g1
(cgeometry_msgs.msg._Point
Point
p18
g3
Ntp19
Rp20
(lp21
F0.7475925919450358
aF0.06747701272000502
aF1.064212406123126
abag1
(cgeometry_msgs.msg._Quaternion
Quaternion
p22
g3
Ntp23
Rp24
(lp25
F0.7155685711251419
aF-0.053248053685518666
aF-0.6963404695787561
aF-0.015369294826511245
ababsg8
I2
sg9
g1
(g14
g3
Ntp26
Rp27
(lp28
g1
(g18
g3
Ntp29
Rp30
(lp31
F0.3946193481941042
aF0.051188797236041396
aF0.9963391692962412
abag1
(g22
g3
Ntp32
Rp33
(lp34
F0.0007744554004857902
aF-0.003409315685256583
aF0.0019692823026288826
aF0.999991949323895
ababsg10
I3
sbag1
(g2
g3
Ntp35
Rp36
(dp37
g7
g1
(g14
g3
Ntp38
Rp39
(lp40
g1
(g18
g3
Ntp41
Rp42
(lp43
F0.7475925919450358
aF0.06747701272000502
aF1.064212406123126
abag1
(g22
g3
Ntp44
Rp45
(lp46
F0.7155685711251419
aF-0.053248053685518666
aF-0.6963404695787561
aF-0.015369294826511245
ababsg8
I2
sg9
g1
(g14
g3
Ntp47
Rp48
(lp49
g1
(g18
g3
Ntp50
Rp51
(lp52
F0.5311212011066266
aF0.05113633934774709
aF0.9963194600934728
abag1
(g22
g3
Ntp53
Rp54
(lp55
F0.005051091301284038
aF-0.002564864294704088
aF-0.0029770050652722095
aF0.9999795224846643
ababsg10
I3
sbag1
(g2
g3
Ntp56
Rp57
(dp58
g7
g1
(g14
g3
Ntp59
Rp60
(lp61
g1
(g18
g3
Ntp62
Rp63
(lp64
F0.7475925919450358
aF0.06747701272000502
aF1.064212406123126
abag1
(g22
g3
Ntp65
Rp66
(lp67
F0.7155685711251419
aF-0.053248053685518666
aF-0.6963404695787561
aF-0.015369294826511245
ababsg8
I2
sg9
g1
(g14
g3
Ntp68
Rp69
(lp70
g1
(g18
g3
Ntp71
Rp72
(lp73
F0.39127056343754213
aF0.05127382962152464
aF0.9766526077085909
abag1
(g22
g3
Ntp74
Rp75
(lp76
F-0.0041748171425402296
aF0.004372462880973208
aF0.0014071348424887775
aF0.9999807360353078
ababsg10
I3
sbag1
(g2
g3
Ntp77
Rp78
(dp79
g7
g1
(g14
g3
Ntp80
Rp81
(lp82
g1
(g18
g3
Ntp83
Rp84
(lp85
F0.7475925919450358
aF0.06747701272000502
aF1.064212406123126
abag1
(g22
g3
Ntp86
Rp87
(lp88
F0.7155685711251419
aF-0.053248053685518666
aF-0.6963404695787561
aF-0.015369294826511245
ababsg8
I2
sg9
g1
(g14
g3
Ntp89
Rp90
(lp91
g1
(g18
g3
Ntp92
Rp93
(lp94
F0.3911557592681426
aF0.05135714508225044
aF0.8119059720175357
abag1
(g22
g3
Ntp95
Rp96
(lp97
F-0.0012690805490059066
aF-0.00038014715796438957
aF-0.004164730483302571
aF0.999990449925748
ababsg10
I3
sba.