(lp0
ccopy_reg
_reconstructor
p1
(cpose_executable
PoseExecutable
p2
c__builtin__
object
p3
Ntp4
Rp5
(dp6
S'arPose'
p7
NsS'relativeFrame'
p8
NsS'pose'
p9
NsS'actionType'
p10
I1
sbag1
(g2
g3
Ntp11
Rp12
(dp13
g7
g1
(cgeometry_msgs.msg._Pose
Pose
p14
g3
Ntp15
Rp16
(lp17
g1
(cgeometry_msgs.msg._Point
Point
p18
g3
Ntp19
Rp20
(lp21
F0.7475925919450358
aF0.06747701272000502
aF1.064212406123126
abag1
(cgeometry_msgs.msg._Quaternion
Quaternion
p22
g3
Ntp23
Rp24
(lp25
F0.7155685711251419
aF-0.053248053685518666
aF-0.6963404695787561
aF-0.015369294826511245
ababsg8
I2
sg9
g1
(g14
g3
Ntp26
Rp27
(lp28
g1
(g18
g3
Ntp29
Rp30
(lp31
F0.4034088962340311
aF0.0561024397448038
aF0.7728530310645211
abag1
(g22
g3
Ntp32
Rp33
(lp34
F0.0018835375630485193
aF-0.003964142863681334
aF0.0029830393341945265
aF0.9999859195678384
ababsg10
I3
sbag1
(g2
g3
Ntp35
Rp36
(dp37
g7
g1
(g14
g3
Ntp38
Rp39
(lp40
g1
(g18
g3
Ntp41
Rp42
(lp43
F0.7475925919450358
aF0.06747701272000502
aF1.064212406123126
abag1
(g22
g3
Ntp44
Rp45
(lp46
F0.7155685711251419
aF-0.053248053685518666
aF-0.6963404695787561
aF-0.015369294826511245
ababsg8
I2
sg9
g1
(g14
g3
Ntp47
Rp48
(lp49
g1
(g18
g3
Ntp50
Rp51
(lp52
F0.5208123310158308
aF0.05617467315193777
aF0.772946411205641
abag1
(g22
g3
Ntp53
Rp54
(lp55
F-0.0014483656506120448
aF0.003209191612352799
aF0.0009064384314766967
aF0.999993390825913
ababsg10
I3
sbag1
(g2
g3
Ntp56
Rp57
(dp58
g7
Nsg8
Nsg9
Nsg10
I2
sbag1
(g2
g3
Ntp59
Rp60
(dp61
g7
g1
(g14
g3
Ntp62
Rp63
(lp64
g1
(g18
g3
Ntp65
Rp66
(lp67
F0.7475925919450358
aF0.06747701272000502
aF1.064212406123126
abag1
(g22
g3
Ntp68
Rp69
(lp70
F0.7155685711251419
aF-0.053248053685518666
aF-0.6963404695787561
aF-0.015369294826511245
ababsg8
I2
sg9
g1
(g14
g3
Ntp71
Rp72
(lp73
g1
(g18
g3
Ntp74
Rp75
(lp76
F0.521013464220627
aF0.0561606076455611
aF0.7813732881994431
abag1
(g22
g3
Ntp77
Rp78
(lp79
F0.0018631573941972784
aF-0.0043760004114005045
aF-0.0008649231507599218
aF0.99998831551817
ababsg10
I3
sbag1
(g2
g3
Ntp80
Rp81
(dp82
g7
g1
(g14
g3
Ntp83
Rp84
(lp85
g1
(g18
g3
Ntp86
Rp87
(lp88
F0.7475925919450358
aF0.06747701272000502
aF1.064212406123126
abag1
(g22
g3
Ntp89
Rp90
(lp91
F0.7155685711251419
aF-0.053248053685518666
aF-0.6963404695787561
aF-0.015369294826511245
ababsg8
I2
sg9
g1
(g14
g3
Ntp92
Rp93
(lp94
g1
(g18
g3
Ntp95
Rp96
(lp97
F0.4471669460191043
aF0.05613264281245039
aF0.7812760920793
abag1
(g22
g3
Ntp98
Rp99
(lp100
F5.316373979819135e-05
aF0.0031174300775906024
aF0.00299725843778642
aF0.9999906475788587
ababsg10
I3
sba.