(lp0
ccopy_reg
_reconstructor
p1
(cpose_executable
PoseExecutable
p2
c__builtin__
object
p3
Ntp4
Rp5
(dp6
S'arPose'
p7
g1
(cgeometry_msgs.msg._Pose
Pose
p8
g3
Ntp9
Rp10
(lp11
g1
(cgeometry_msgs.msg._Point
Point
p12
g3
Ntp13
Rp14
(lp15
F0.7475925919450358
aF0.06747701272000502
aF1.064212406123126
abag1
(cgeometry_msgs.msg._Quaternion
Quaternion
p16
g3
Ntp17
Rp18
(lp19
F0.7155685711251419
aF-0.053248053685518666
aF-0.6963404695787561
aF-0.015369294826511245
ababsS'relativeFrame'
p20
I2
sS'pose'
p21
g1
(g8
g3
Ntp22
Rp23
(lp24
g1
(g12
g3
Ntp25
Rp26
(lp27
F0.4192874176884049
aF0.0637908564803562
aF0.7958653405505942
abag1
(g16
g3
Ntp28
Rp29
(lp30
F-0.0029842941231244344
aF0.018053160770460677
aF-0.0013117856358471627
aF0.9998317141365481
ababsS'actionType'
p31
I3
sbag1
(g2
g3
Ntp32
Rp33
(dp34
g7
g1
(g8
g3
Ntp35
Rp36
(lp37
g1
(g12
g3
Ntp38
Rp39
(lp40
F0.7475925919450358
aF0.06747701272000502
aF1.064212406123126
abag1
(g16
g3
Ntp41
Rp42
(lp43
F0.7155685711251419
aF-0.053248053685518666
aF-0.6963404695787561
aF-0.015369294826511245
ababsg20
I2
sg21
g1
(g8
g3
Ntp44
Rp45
(lp46
g1
(g12
g3
Ntp47
Rp48
(lp49
F0.5164982005116837
aF0.06429322156792228
aF0.7925991030062061
abag1
(g16
g3
Ntp50
Rp51
(lp52
F0.0049990686390202835
aF0.02008955809018925
aF0.0031027189304748113
aF0.9997808720433302
ababsg31
I3
sbag1
(g2
g3
Ntp53
Rp54
(dp55
g7
Nsg20
Nsg21
Nsg31
I2
sbag1
(g2
g3
Ntp56
Rp57
(dp58
g7
g1
(g8
g3
Ntp59
Rp60
(lp61
g1
(g12
g3
Ntp62
Rp63
(lp64
F0.7475925919450358
aF0.06747701272000502
aF1.064212406123126
abag1
(g16
g3
Ntp65
Rp66
(lp67
F0.7155685711251419
aF-0.053248053685518666
aF-0.6963404695787561
aF-0.015369294826511245
ababsg20
I2
sg21
g1
(g8
g3
Ntp68
Rp69
(lp70
g1
(g12
g3
Ntp71
Rp72
(lp73
F0.5142534810995056
aF0.06428685984725926
aF0.80306719748818
abag1
(g16
g3
Ntp74
Rp75
(lp76
F-0.0021946835343624647
aF0.021253744191959228
aF-0.0006468770221380043
aF0.9997714955289159
ababsg31
I3
sbag1
(g2
g3
Ntp77
Rp78
(dp79
g7
g1
(g8
g3
Ntp80
Rp81
(lp82
g1
(g12
g3
Ntp83
Rp84
(lp85
F0.7475925919450358
aF0.06747701272000502
aF1.064212406123126
abag1
(g16
g3
Ntp86
Rp87
(lp88
F0.7155685711251419
aF-0.053248053685518666
aF-0.6963404695787561
aF-0.015369294826511245
ababsg20
I2
sg21
g1
(g8
g3
Ntp89
Rp90
(lp91
g1
(g12
g3
Ntp92
Rp93
(lp94
F0.439360140738935
aF-0.08445366785747271
aF0.8053120631651134
abag1
(g16
g3
Ntp95
Rp96
(lp97
F0.0028639582082624748
aF0.013647563631146012
aF0.002404140428189204
aF0.9998998759171424
ababsg31
I3
sba.