(dp0
S'home'
p1
ccopy_reg
_reconstructor
p2
(cgeometry_msgs.msg._Pose
Pose
p3
c__builtin__
object
p4
Ntp5
Rp6
(lp7
g2
(cgeometry_msgs.msg._Point
Point
p8
g4
Ntp9
Rp10
(lp11
F-0.029275476932525635
aF-0.9555906057357788
aF5.7220458984375e-06
abag2
(cgeometry_msgs.msg._Quaternion
Quaternion
p12
g4
Ntp13
Rp14
(lp15
F4.205876535934294e-08
aF1.3648589203274497e-11
aF-0.7060685753822327
aF0.708143413066864
ababsS'bar_table'
p16
g2
(g3
g4
Ntp17
Rp18
(lp19
g2
(g8
g4
Ntp20
Rp21
(lp22
F-0.006521642208099365
aF0.0286484956741333
aF9.5367431640625e-06
abag2
(g12
g4
Ntp23
Rp24
(lp25
F-4.969559874723473e-09
aF-2.94348212470652e-10
aF0.08147910237312317
aF0.9966750144958496
ababs.