(dp0
S'middle'
p1
ccopy_reg
_reconstructor
p2
(cgeometry_msgs.msg._Pose
Pose
p3
c__builtin__
object
p4
Ntp5
Rp6
(lp7
g2
(cgeometry_msgs.msg._Point
Point
p8
g4
Ntp9
Rp10
(lp11
F-4.726583480834961
aF-3.689812421798706
aF-9.5367431640625e-07
abag2
(cgeometry_msgs.msg._Quaternion
Quaternion
p12
g4
Ntp13
Rp14
(lp15
F-4.4006817745412263e-08
aF3.9373382332286155e-10
aF0.7267628908157349
aF0.6868884563446045
ababsS'home'
p16
g2
(g3
g4
Ntp17
Rp18
(lp19
g2
(g8
g4
Ntp20
Rp21
(lp22
F-3.4051854610443115
aF-3.5882272720336914
aF3.814697265625e-06
abag2
(g12
g4
Ntp23
Rp24
(lp25
F7.741472352051915e-09
aF-1.4418868876653335e-10
aF-0.12531141936779022
aF0.9921174645423889
ababsS'bar_table'
p26
g2
(g3
g4
Ntp27
Rp28
(lp29
g2
(g8
g4
Ntp30
Rp31
(lp32
F-4.799304962158203
aF-2.911742925643921
aF9.5367431640625e-06
abag2
(g12
g4
Ntp33
Rp34
(lp35
F-4.234074069131566e-08
aF-2.5312274498645593e-10
aF0.703129231929779
aF0.7110621333122253
ababs.