(dp0
S'middle'
p1
ccopy_reg
_reconstructor
p2
(cgeometry_msgs.msg._Pose
Pose
p3
c__builtin__
object
p4
Ntp5
Rp6
(lp7
g2
(cgeometry_msgs.msg._Point
Point
p8
g4
Ntp9
Rp10
(lp11
F-4.178043365478516
aF-3.6361641883850098
aF-9.5367431640625e-07
abag2
(cgeometry_msgs.msg._Quaternion
Quaternion
p12
g4
Ntp13
Rp14
(lp15
F-5.892322718636933e-08
aF7.893348197285377e-10
aF0.9839848279953003
aF0.17825254797935486
ababsS'bar_table'
p16
g2
(g3
g4
Ntp17
Rp18
(lp19
g2
(g8
g4
Ntp20
Rp21
(lp22
F-5.3154520988464355
aF-3.314316749572754
aF1.33514404296875e-05
abag2
(g12
g4
Ntp23
Rp24
(lp25
F-6.020212595103658e-08
aF1.3731236980785155e-10
aF0.9970729947090149
aF0.07645587623119354
ababsS'home'
p26
g2
(g3
g4
Ntp27
Rp28
(lp29
g2
(g8
g4
Ntp30
Rp31
(lp32
F-3.4065420627593994
aF-3.70640230178833
aF3.814697265625e-06
abag2
(g12
g4
Ntp33
Rp34
(lp35
F2.427336553978421e-09
aF-2.1300299024584746e-10
aF-0.029240431264042854
aF0.9995725154876709
ababs.