(dp0
S'home'
p1
ccopy_reg
_reconstructor
p2
(cgeometry_msgs.msg._Pose
Pose
p3
c__builtin__
object
p4
Ntp5
Rp6
(lp7
g2
(cgeometry_msgs.msg._Point
Point
p8
g4
Ntp9
Rp10
(lp11
F-1.7655200958251953
aF2.9860353469848633
aF0.0
abag2
(cgeometry_msgs.msg._Quaternion
Quaternion
p12
g4
Ntp13
Rp14
(lp15
F1.581478237255851e-08
aF3.6887194687640346e-12
aF-0.26491057872772217
aF0.9642729759216309
ababsS'init_pose'
p16
g2
(g3
g4
Ntp17
Rp18
(lp19
g2
(g8
g4
Ntp20
Rp21
(lp22
F1.2871192693710327
aF0.09728336334228516
aF9.5367431640625e-07
abag2
(g12
g4
Ntp23
Rp24
(lp25
F-4.070160031233172e-08
aF-7.300811344368441e-11
aF0.6807065606117249
aF0.7325562834739685
ababsS'init_pose1'
p26
g2
(g3
g4
Ntp27
Rp28
(lp29
g2
(g8
g4
Ntp30
Rp31
(lp32
F1.4177601337432861
aF2.0910463333129883
aF4.76837158203125e-07
abag2
(g12
g4
Ntp33
Rp34
(lp35
F-8.111931748544521e-08
aF1.0165394748185008e-08
aF0.999175488948822
aF0.040599800646305084
ababsS'bar_table'
p36
g2
(g3
g4
Ntp37
Rp38
(lp39
g2
(g8
g4
Ntp40
Rp41
(lp42
F-3.1122450828552246
aF4.448193550109863
aF9.5367431640625e-07
abag2
(g12
g4
Ntp43
Rp44
(lp45
F-5.948557202373195e-08
aF-4.866329561536986e-11
aF0.9962014555931091
aF0.08707860112190247
ababs.