(dp0
S'home'
p1
ccopy_reg
_reconstructor
p2
(cgeometry_msgs.msg._Pose
Pose
p3
c__builtin__
object
p4
Ntp5
Rp6
(lp7
g2
(cgeometry_msgs.msg._Point
Point
p8
g4
Ntp9
Rp10
(lp11
F-3.4065420627593994
aF-3.70640230178833
aF3.814697265625e-06
abag2
(cgeometry_msgs.msg._Quaternion
Quaternion
p12
g4
Ntp13
Rp14
(lp15
F5.365318411776343e-09
aF-1.7215399938930176e-10
aF-0.08669252693653107
aF0.9962351322174072
ababsS'bar_table'
p16
g2
(g3
g4
Ntp17
Rp18
(lp19
g2
(g8
g4
Ntp20
Rp21
(lp22
F-5.329921722412109
aF-3.202333688735962
aF1.239776611328125e-05
abag2
(g12
g4
Ntp23
Rp24
(lp25
F-6.035901378709241e-08
aF5.702536221008359e-10
aF0.9990304112434387
aF0.04402604699134827
ababsS'middle'
p26
g2
(g3
g4
Ntp27
Rp28
(lp29
g2
(g8
g4
Ntp30
Rp31
(lp32
F-4.178043365478516
aF-3.6361641883850098
aF-9.5367431640625e-07
abag2
(g12
g4
Ntp33
Rp34
(lp35
F-5.892322718636933e-08
aF7.893348197285377e-10
aF0.9839848279953003
aF0.17825254797935486
ababs.