(dp0
S'home'
p1
ccopy_reg
_reconstructor
p2
(cgeometry_msgs.msg._Pose
Pose
p3
c__builtin__
object
p4
Ntp5
Rp6
(lp7
g2
(cgeometry_msgs.msg._Point
Point
p8
g4
Ntp9
Rp10
(lp11
F-3.4065420627593994
aF-3.70640230178833
aF3.814697265625e-06
abag2
(cgeometry_msgs.msg._Quaternion
Quaternion
p12
g4
Ntp13
Rp14
(lp15
F2.427336331933816e-09
aF-2.1300296249027184e-10
aF-0.029240427538752556
aF0.9995723962783813
ababsS'middle'
p16
g2
(g3
g4
Ntp17
Rp18
(lp19
g2
(g8
g4
Ntp20
Rp21
(lp22
F-4.053549766540527
aF-3.5978527069091797
aF-9.5367431640625e-07
abag2
(g12
g4
Ntp23
Rp24
(lp25
F-5.892322363365565e-08
aF7.893347642173865e-10
aF0.9839847683906555
aF0.17825253307819366
ababsS'bar_table'
p26
g2
(g3
g4
Ntp27
Rp28
(lp29
g2
(g8
g4
Ntp30
Rp31
(lp32
F-5.3154520988464355
aF-3.314316749572754
aF1.33514404296875e-05
abag2
(g12
g4
Ntp33
Rp34
(lp35
F-6.040374955773586e-08
aF1.3674172905098203e-10
aF0.9983088374137878
aF0.05813490226864815
ababs.