(dp0
S'home'
p1
ccopy_reg
_reconstructor
p2
(cgeometry_msgs.msg._Pose
Pose
p3
c__builtin__
object
p4
Ntp5
Rp6
(lp7
g2
(cgeometry_msgs.msg._Point
Point
p8
g4
Ntp9
Rp10
(lp11
F2.177546977996826
aF0.2684873938560486
aF0.0
abag2
(cgeometry_msgs.msg._Quaternion
Quaternion
p12
g4
Ntp13
Rp14
(lp15
F0.0
aF0.0
aF0.0
aF1.0
ababsS'bar_table'
p16
g2
(g3
g4
Ntp17
Rp18
(lp19
g2
(g8
g4
Ntp20
Rp21
(lp22
F2.976311445236206
aF2.8846652507781982
aF9.5367431640625e-07
abag2
(g12
g4
Ntp23
Rp24
(lp25
F1.1593419557698326e-09
aF-5.24395769863073e-11
aF-0.01992241106927395
aF0.999801516532898
ababs.