(dp0
S'home'
p1
ccopy_reg
_reconstructor
p2
(cgeometry_msgs.msg._Pose
Pose
p3
c__builtin__
object
p4
Ntp5
Rp6
(lp7
g2
(cgeometry_msgs.msg._Point
Point
p8
g4
Ntp9
Rp10
(lp11
F0.41153430938720703
aF-1.8919854164123535
aF1.9073486328125e-06
abag2
(cgeometry_msgs.msg._Quaternion
Quaternion
p12
g4
Ntp13
Rp14
(lp15
F4.205876891205662e-08
aF1.3648590070636235e-11
aF-0.7060686349868774
aF0.7081434726715088
ababsS'bar_table'
p16
g2
(g3
g4
Ntp17
Rp18
(lp19
g2
(g8
g4
Ntp20
Rp21
(lp22
F0.4463691711425781
aF-0.262414813041687
aF3.814697265625e-06
abag2
(g12
g4
Ntp23
Rp24
(lp25
F1.1593419557698326e-09
aF-5.24395769863073e-11
aF-0.01992241106927395
aF0.999801516532898
ababs.