(dp0
S'init_pose1'
p1
ccopy_reg
_reconstructor
p2
(cgeometry_msgs.msg._Pose
Pose
p3
c__builtin__
object
p4
Ntp5
Rp6
(lp7
g2
(cgeometry_msgs.msg._Point
Point
p8
g4
Ntp9
Rp10
(lp11
F1.6462454795837402
aF1.7752481698989868
aF0.0
abag2
(cgeometry_msgs.msg._Quaternion
Quaternion
p12
g4
Ntp13
Rp14
(lp15
F-5.169171757302138e-08
aF-7.592140249812473e-09
aF0.9967558979988098
aF0.08048417419195175
ababsS'home'
p16
g2
(g3
g4
Ntp17
Rp18
(lp19
g2
(g8
g4
Ntp20
Rp21
(lp22
F-1.571333408355713
aF2.445173978805542
aF-4.76837158203125e-07
abag2
(g12
g4
Ntp23
Rp24
(lp25
F8.370161452830871e-09
aF-1.9922941768557578e-11
aF-0.14104419946670532
aF0.9900033473968506
ababsS'home1'
p26
g2
(g3
g4
Ntp27
Rp28
(lp29
g2
(g8
g4
Ntp30
Rp31
(lp32
F-1.7046928405761719
aF3.3077077865600586
aF0.0
abag2
(g12
g4
Ntp33
Rp34
(lp35
F-5.6689405170118334e-08
aF4.327077238186483e-11
aF0.9509421586990356
aF0.3093685507774353
ababsS'init_pose'
p36
g2
(g3
g4
Ntp37
Rp38
(lp39
g2
(g8
g4
Ntp40
Rp41
(lp42
F1.55936861038208
aF-0.13201729953289032
aF9.5367431640625e-07
abag2
(g12
g4
Ntp43
Rp44
(lp45
F-4.2484668227871225e-08
aF-5.507714076480319e-12
aF0.712684690952301
aF0.7014845013618469
ababsS'bar_table'
p46
g2
(g3
g4
Ntp47
Rp48
(lp49
g2
(g8
g4
Ntp50
Rp51
(lp52
F-2.51786208152771
aF3.8418827056884766
aF0.0
abag2
(g12
g4
Ntp53
Rp54
(lp55
F-4.12094358637205e-08
aF-7.943468799398445e-11
aF0.6893103718757629
aF0.7244661450386047
ababs.