(lp0
ccopy_reg
_reconstructor
p1
(cpose_executable
PoseExecutable
p2
c__builtin__
object
p3
Ntp4
Rp5
(dp6
S'arPose'
p7
g1
(cgeometry_msgs.msg._Pose
Pose
p8
g3
Ntp9
Rp10
(lp11
g1
(cgeometry_msgs.msg._Point
Point
p12
g3
Ntp13
Rp14
(lp15
F0.7475925919450358
aF0.06747701272000502
aF1.064212406123126
abag1
(cgeometry_msgs.msg._Quaternion
Quaternion
p16
g3
Ntp17
Rp18
(lp19
F0.7155685711251419
aF-0.053248053685518666
aF-0.6963404695787561
aF-0.015369294826511245
ababsS'relativeFrame'
p20
I2
sS'pose'
p21
g1
(g8
g3
Ntp22
Rp23
(lp24
g1
(g12
g3
Ntp25
Rp26
(lp27
F0.5082537556483266
aF-0.1549628232123331
aF0.793847482336122
abag1
(g16
g3
Ntp28
Rp29
(lp30
F-0.0026151311669236933
aF-0.004505394769753931
aF0.002381579442885196
aF0.9999835951585935
ababsS'actionType'
p31
I3
sbag1
(g2
g3
Ntp32
Rp33
(dp34
g7
g1
(g8
g3
Ntp35
Rp36
(lp37
g1
(g12
g3
Ntp38
Rp39
(lp40
F0.7475925919450358
aF0.06747701272000502
aF1.064212406123126
abag1
(g16
g3
Ntp41
Rp42
(lp43
F0.7155685711251419
aF-0.053248053685518666
aF-0.6963404695787561
aF-0.015369294826511245
ababsg20
I2
sg21
g1
(g8
g3
Ntp44
Rp45
(lp46
g1
(g12
g3
Ntp47
Rp48
(lp49
F0.5082244650473412
aF0.05617334830612588
aF0.793854647710803
abag1
(g16
g3
Ntp50
Rp51
(lp52
F0.001565944155876312
aF0.0011536188771216235
aF0.0021467372077208498
aF0.9999958042420718
ababsg31
I3
sbag1
(g2
g3
Ntp53
Rp54
(dp55
g7
g1
(g8
g3
Ntp56
Rp57
(lp58
g1
(g12
g3
Ntp59
Rp60
(lp61
F0.7475925919450358
aF0.06747701272000502
aF1.064212406123126
abag1
(g16
g3
Ntp62
Rp63
(lp64
F0.7155685711251419
aF-0.053248053685518666
aF-0.6963404695787561
aF-0.015369294826511245
ababsg20
I2
sg21
g1
(g8
g3
Ntp65
Rp66
(lp67
g1
(g12
g3
Ntp68
Rp69
(lp70
F0.5197886244216481
aF0.05619362775255279
aF0.7938298264291255
abag1
(g16
g3
Ntp71
Rp72
(lp73
F-0.004268575242576352
aF-0.0008063046281194548
aF-0.00396703798935638
aF0.9999826957241991
ababsg31
I3
sbag1
(g2
g3
Ntp74
Rp75
(dp76
g7
g1
(g8
g3
Ntp77
Rp78
(lp79
g1
(g12
g3
Ntp80
Rp81
(lp82
F0.7475925919450358
aF0.06747701272000502
aF1.064212406123126
abag1
(g16
g3
Ntp83
Rp84
(lp85
F0.7155685711251419
aF-0.053248053685518666
aF-0.6963404695787561
aF-0.015369294826511245
ababsg20
I2
sg21
g1
(g8
g3
Ntp86
Rp87
(lp88
g1
(g12
g3
Ntp89
Rp90
(lp91
F0.5197861475457444
aF0.05612898264331503
aF0.7727352122842093
abag1
(g16
g3
Ntp92
Rp93
(lp94
F-0.002074191076393625
aF0.0013169767908951487
aF-0.0003986042034314632
aF0.9999969022043017
ababsg31
I3
sbag1
(g2
g3
Ntp95
Rp96
(dp97
g7
Nsg20
Nsg21
Nsg31
I1
sbag1
(g2
g3
Ntp98
Rp99
(dp100
g7
g1
(g8
g3
Ntp101
Rp102
(lp103
g1
(g12
g3
Ntp104
Rp105
(lp106
F0.7475925919450358
aF0.06747701272000502
aF1.064212406123126
abag1
(g16
g3
Ntp107
Rp108
(lp109
F0.7155685711251419
aF-0.053248053685518666
aF-0.6963404695787561
aF-0.015369294826511245
ababsg20
I2
sg21
g1
(g8
g3
Ntp110
Rp111
(lp112
g1
(g12
g3
Ntp113
Rp114
(lp115
F0.40345356644753716
aF0.05618700855742106
aF0.7728699742029035
abag1
(g16
g3
Ntp116
Rp117
(lp118
F-0.0006659299689814793
aF-0.0028909614677889747
aF0.004496184779174517
aF0.9999854914955015
ababsg31
I3
sba.