(lp0
ccopy_reg
_reconstructor
p1
(cpose_executable
PoseExecutable
p2
c__builtin__
object
p3
Ntp4
Rp5
(dp6
S'arPose'
p7
g1
(cgeometry_msgs.msg._Pose
Pose
p8
g3
Ntp9
Rp10
(lp11
g1
(cgeometry_msgs.msg._Point
Point
p12
g3
Ntp13
Rp14
(lp15
F0.7475925919450358
aF0.06747701272000502
aF1.064212406123126
abag1
(cgeometry_msgs.msg._Quaternion
Quaternion
p16
g3
Ntp17
Rp18
(lp19
F0.7155685711251419
aF-0.053248053685518666
aF-0.6963404695787561
aF-0.015369294826511245
ababsS'relativeFrame'
p20
I2
sS'pose'
p21
g1
(g8
g3
Ntp22
Rp23
(lp24
g1
(g12
g3
Ntp25
Rp26
(lp27
F0.4143459713752165
aF-0.18779289806180482
aF0.8288275678040058
abag1
(g16
g3
Ntp28
Rp29
(lp30
F-0.0005603386538761207
aF0.01886640540978581
aF-0.0007821538514543599
aF0.9998215505793318
ababsS'actionType'
p31
I3
sbag1
(g2
g3
Ntp32
Rp33
(dp34
g7
g1
(g8
g3
Ntp35
Rp36
(lp37
g1
(g12
g3
Ntp38
Rp39
(lp40
F0.7475925919450358
aF0.06747701272000502
aF1.064212406123126
abag1
(g16
g3
Ntp41
Rp42
(lp43
F0.7155685711251419
aF-0.053248053685518666
aF-0.6963404695787561
aF-0.015369294826511245
ababsg20
I2
sg21
g1
(g8
g3
Ntp44
Rp45
(lp46
g1
(g12
g3
Ntp47
Rp48
(lp49
F0.41366797885379775
aF-0.07402841135610472
aF0.8289764169836686
abag1
(g16
g3
Ntp50
Rp51
(lp52
F-0.003382632443864383
aF0.020279217182340256
aF0.00538776306974198
aF0.9997741160668872
ababsg31
I3
sbag1
(g2
g3
Ntp53
Rp54
(dp55
g7
g1
(g8
g3
Ntp56
Rp57
(lp58
g1
(g12
g3
Ntp59
Rp60
(lp61
F0.7475925919450358
aF0.06747701272000502
aF1.064212406123126
abag1
(g16
g3
Ntp62
Rp63
(lp64
F0.7155685711251419
aF-0.053248053685518666
aF-0.6963404695787561
aF-0.015369294826511245
ababsg20
I2
sg21
g1
(g8
g3
Ntp65
Rp66
(lp67
g1
(g12
g3
Ntp68
Rp69
(lp70
F0.4136833982316808
aF-0.07399869655828362
aF0.8289887738623463
abag1
(g16
g3
Ntp71
Rp72
(lp73
F-0.0033904812789877607
aF0.02026454748450429
aF0.005433664986770224
aF0.9997741385116724
ababsg31
I3
sbag1
(g2
g3
Ntp74
Rp75
(dp76
g7
g1
(g8
g3
Ntp77
Rp78
(lp79
g1
(g12
g3
Ntp80
Rp81
(lp82
F0.7475925919450358
aF0.06747701272000502
aF1.064212406123126
abag1
(g16
g3
Ntp83
Rp84
(lp85
F0.7155685711251419
aF-0.053248053685518666
aF-0.6963404695787561
aF-0.015369294826511245
ababsg20
I2
sg21
g1
(g8
g3
Ntp86
Rp87
(lp88
g1
(g12
g3
Ntp89
Rp90
(lp91
F0.4128722961448444
aF0.06145135043376226
aF0.8292287291935291
abag1
(g16
g3
Ntp92
Rp93
(lp94
F0.004087574655832182
aF0.021399869377156957
aF0.003988748825038246
aF0.9997546835133528
ababsg31
I3
sbag1
(g2
g3
Ntp95
Rp96
(dp97
g7
g1
(g8
g3
Ntp98
Rp99
(lp100
g1
(g12
g3
Ntp101
Rp102
(lp103
F0.7475925919450358
aF0.06747701272000502
aF1.064212406123126
abag1
(g16
g3
Ntp104
Rp105
(lp106
F0.7155685711251419
aF-0.053248053685518666
aF-0.6963404695787561
aF-0.015369294826511245
ababsg20
I2
sg21
g1
(g8
g3
Ntp107
Rp108
(lp109
g1
(g12
g3
Ntp110
Rp111
(lp112
F0.5134593131926694
aF0.062009091564332285
aF0.8257699041600721
abag1
(g16
g3
Ntp113
Rp114
(lp115
F0.0033500933500284656
aF0.016408618605915557
aF0.005609852596219712
aF0.999844019666988
ababsg31
I3
sbag1
(g2
g3
Ntp116
Rp117
(dp118
g7
g1
(g8
g3
Ntp119
Rp120
(lp121
g1
(g12
g3
Ntp122
Rp123
(lp124
F0.7475925919450358
aF0.06747701272000502
aF1.064212406123126
abag1
(g16
g3
Ntp125
Rp126
(lp127
F0.7155685711251419
aF-0.053248053685518666
aF-0.6963404695787561
aF-0.015369294826511245
ababsg20
I2
sg21
g1
(g8
g3
Ntp128
Rp129
(lp130
g1
(g12
g3
Ntp131
Rp132
(lp133
F0.5126193062410285
aF0.06208239293930256
aF0.7986156488851455
abag1
(g16
g3
Ntp134
Rp135
(lp136
F-0.002648020702409011
aF0.021835143047267084
aF0.001977661822395559
aF0.999756121945838
ababsg31
I3
sbag1
(g2
g3
Ntp137
Rp138
(dp139
g7
Nsg20
Nsg21
Nsg31
I1
sbag1
(g2
g3
Ntp140
Rp141
(dp142
g7
g1
(g8
g3
Ntp143
Rp144
(lp145
g1
(g12
g3
Ntp146
Rp147
(lp148
F0.7475925919450358
aF0.06747701272000502
aF1.064212406123126
abag1
(g16
g3
Ntp149
Rp150
(lp151
F0.7155685711251419
aF-0.053248053685518666
aF-0.6963404695787561
aF-0.015369294826511245
ababsg20
I2
sg21
g1
(g8
g3
Ntp152
Rp153
(lp154
g1
(g12
g3
Ntp155
Rp156
(lp157
F0.3661859302536106
aF0.06116782525515544
aF0.803634978581506
abag1
(g16
g3
Ntp158
Rp159
(lp160
F-0.0004943134264875022
aF0.01617002845143793
aF0.003402376610636581
aF0.9998633454965311
ababsg31
I3
sba.