(lp0
ccopy_reg
_reconstructor
p1
(cpose_executable
PoseExecutable
p2
c__builtin__
object
p3
Ntp4
Rp5
(dp6
S'arPose'
p7
NsS'relativeFrame'
p8
S'base_link'
p9
sS'pose'
p10
g1
(cgeometry_msgs.msg._Pose
Pose
p11
g3
Ntp12
Rp13
(lp14
g1
(cgeometry_msgs.msg._Point
Point
p15
g3
Ntp16
Rp17
(lp18
F0.46968083646880615
aF-0.3326970614540345
aF0.9364368302066638
abag1
(cgeometry_msgs.msg._Quaternion
Quaternion
p19
g3
Ntp20
Rp21
(lp22
F0.003072116149965756
aF-0.0034510547474732225
aF0.002508982744606979
aF0.9999861785690232
ababsS'actionType'
p23
I3
sbag1
(g2
g3
Ntp24
Rp25
(dp26
g7
Nsg8
g9
sg10
g1
(g11
g3
Ntp27
Rp28
(lp29
g1
(g15
g3
Ntp30
Rp31
(lp32
F0.468060276480123
aF-0.02721801718697703
aF0.8115966106811616
abag1
(g19
g3
Ntp33
Rp34
(lp35
F0.0035936081092477674
aF-0.00068529348825394
aF0.010749655605178376
aF0.9999355285506972
ababsg23
I3
sba.