(dp0
S'home'
p1
ccopy_reg
_reconstructor
p2
(cgeometry_msgs.msg._PoseWithCovarianceStamped
PoseWithCovarianceStamped
p3
c__builtin__
object
p4
Ntp5
Rp6
(lp7
g2
(cstd_msgs.msg._Header
Header
p8
g4
Ntp9
Rp10
(lp11
I84
ag2
(cgenpy.rostime
Time
p12
g4
Ntp13
Rp14
(lp15
I208
aI645000000
abaS'map'
p16
abag2
(cgeometry_msgs.msg._PoseWithCovariance
PoseWithCovariance
p17
g4
Ntp18
Rp19
(lp20
g2
(cgeometry_msgs.msg._Pose
Pose
p21
g4
Ntp22
Rp23
(lp24
g2
(cgeometry_msgs.msg._Point
Point
p25
g4
Ntp26
Rp27
(lp28
F0.19408265718211723
aF0.4291346488209663
aF0.0
abag2
(cgeometry_msgs.msg._Quaternion
Quaternion
p29
g4
Ntp30
Rp31
(lp32
F0.0
aF0.0
aF0.001577043309738341
aF0.9999987564664264
ababa(F0.040812398603882374
F-0.0034529683554272855
F0.0
F0.0
F0.0
F0.0
F-0.0034529683554272855
F0.01634377834263595
F0.0
F0.0
F0.0
F0.0
F0.0
F0.0
F0.0
F0.0
F0.0
F0.0
F0.0
F0.0
F0.0
F0.0
F0.0
F0.0
F0.0
F0.0
F0.0
F0.0
F0.0
F0.0
F0.0
F0.0
F0.0
F0.0
F0.0
F0.01683141768770568
tp33
ababsS'table'
p34
g2
(g3
g4
Ntp35
Rp36
(lp37
g2
(g8
g4
Ntp38
Rp39
(lp40
I63
ag2
(g12
g4
Ntp41
Rp42
(lp43
I366
aI744000000
abaS'map'
p44
abag2
(g17
g4
Ntp45
Rp46
(lp47
g2
(g21
g4
Ntp48
Rp49
(lp50
g2
(g25
g4
Ntp51
Rp52
(lp53
F3.49859664651212
aF1.1019558670273812
aF0.0
abag2
(g29
g4
Ntp54
Rp55
(lp56
F0.0
aF0.0
aF0.5778508626542962
aF0.8161423776092538
ababa(F0.006248311924798244
F0.0020719662858463828
F0.0
F0.0
F0.0
F0.0
F0.002071966285847271
F0.025320058631214337
F0.0
F0.0
F0.0
F0.0
F0.0
F0.0
F0.0
F0.0
F0.0
F0.0
F0.0
F0.0
F0.0
F0.0
F0.0
F0.0
F0.0
F0.0
F0.0
F0.0
F0.0
F0.0
F0.0
F0.0
F0.0
F0.0
F0.0
F0.0031341030436646683
tp57
ababsS'near door'
p58
g2
(g3
g4
Ntp59
Rp60
(lp61
g2
(g8
g4
Ntp62
Rp63
(lp64
I33
ag2
(g12
g4
Ntp65
Rp66
(lp67
I334
aI909000000
abaS'map'
p68
abag2
(g17
g4
Ntp69
Rp70
(lp71
g2
(g21
g4
Ntp72
Rp73
(lp74
g2
(g25
g4
Ntp75
Rp76
(lp77
F4.0775081093062004
aF-4.031791413979412
aF0.0
abag2
(g29
g4
Ntp78
Rp79
(lp80
F0.0
aF0.0
aF0.8596002242337156
aF0.5109671755576338
ababa(F0.012612714657802115
F0.008631820874882123
F0.0
F0.0
F0.0
F0.0
F0.008631820874882123
F0.03506914920899007
F0.0
F0.0
F0.0
F0.0
F0.0
F0.0
F0.0
F0.0
F0.0
F0.0
F0.0
F0.0
F0.0
F0.0
F0.0
F0.0
F0.0
F0.0
F0.0
F0.0
F0.0
F0.0
F0.0
F0.0
F0.0
F0.0
F0.0
F0.012859125760000506
tp81
ababs.